
GccMatrixWS2812 V3.elf:     file format elf32-avr

Sections:
Idx Name          Size      VMA       LMA       File off  Algn
  0 .data         00000044  00800100  0000111c  000011b0  2**0
                  CONTENTS, ALLOC, LOAD, DATA
  1 .text         0000111c  00000000  00000000  00000094  2**1
                  CONTENTS, ALLOC, LOAD, READONLY, CODE
  2 .bss          00000263  00800144  00800144  000011f4  2**0
                  ALLOC
  3 .comment      00000030  00000000  00000000  000011f4  2**0
                  CONTENTS, READONLY
  4 .note.gnu.avr.deviceinfo 00000040  00000000  00000000  00001224  2**2
                  CONTENTS, READONLY
  5 .debug_aranges 00000218  00000000  00000000  00001268  2**3
                  CONTENTS, READONLY, DEBUGGING
  6 .debug_info   00001aa9  00000000  00000000  00001480  2**0
                  CONTENTS, READONLY, DEBUGGING
  7 .debug_abbrev 00000d65  00000000  00000000  00002f29  2**0
                  CONTENTS, READONLY, DEBUGGING
  8 .debug_line   000022ad  00000000  00000000  00003c8e  2**0
                  CONTENTS, READONLY, DEBUGGING
  9 .debug_frame  000005b8  00000000  00000000  00005f3c  2**2
                  CONTENTS, READONLY, DEBUGGING
 10 .debug_str    000115de  00000000  00000000  000064f4  2**0
                  CONTENTS, READONLY, DEBUGGING
 11 .debug_loc    00000cf9  00000000  00000000  00017ad2  2**0
                  CONTENTS, READONLY, DEBUGGING
 12 .debug_ranges 00000178  00000000  00000000  000187cb  2**0
                  CONTENTS, READONLY, DEBUGGING
 13 .debug_macro  00007d66  00000000  00000000  00018943  2**0
                  CONTENTS, READONLY, DEBUGGING

Disassembly of section .text:

00000000 <__vectors>:
       0:	33 c0       	rjmp	.+102    	; 0x68 <__ctors_end>
       2:	00 00       	nop
       4:	4d c0       	rjmp	.+154    	; 0xa0 <__bad_interrupt>
       6:	00 00       	nop
       8:	4b c0       	rjmp	.+150    	; 0xa0 <__bad_interrupt>
       a:	00 00       	nop
       c:	49 c0       	rjmp	.+146    	; 0xa0 <__bad_interrupt>
       e:	00 00       	nop
      10:	47 c0       	rjmp	.+142    	; 0xa0 <__bad_interrupt>
      12:	00 00       	nop
      14:	45 c0       	rjmp	.+138    	; 0xa0 <__bad_interrupt>
      16:	00 00       	nop
      18:	43 c0       	rjmp	.+134    	; 0xa0 <__bad_interrupt>
      1a:	00 00       	nop
      1c:	41 c0       	rjmp	.+130    	; 0xa0 <__bad_interrupt>
      1e:	00 00       	nop
      20:	3f c0       	rjmp	.+126    	; 0xa0 <__bad_interrupt>
      22:	00 00       	nop
      24:	3d c0       	rjmp	.+122    	; 0xa0 <__bad_interrupt>
      26:	00 00       	nop
      28:	3b c0       	rjmp	.+118    	; 0xa0 <__bad_interrupt>
      2a:	00 00       	nop
      2c:	39 c0       	rjmp	.+114    	; 0xa0 <__bad_interrupt>
      2e:	00 00       	nop
      30:	37 c0       	rjmp	.+110    	; 0xa0 <__bad_interrupt>
      32:	00 00       	nop
      34:	35 c0       	rjmp	.+106    	; 0xa0 <__bad_interrupt>
      36:	00 00       	nop
      38:	75 c1       	rjmp	.+746    	; 0x324 <__vector_14>
      3a:	00 00       	nop
      3c:	31 c0       	rjmp	.+98     	; 0xa0 <__bad_interrupt>
      3e:	00 00       	nop
      40:	2f c0       	rjmp	.+94     	; 0xa0 <__bad_interrupt>
      42:	00 00       	nop
      44:	2d c0       	rjmp	.+90     	; 0xa0 <__bad_interrupt>
      46:	00 00       	nop
      48:	47 c2       	rjmp	.+1166   	; 0x4d8 <__vector_18>
      4a:	00 00       	nop
      4c:	2c c2       	rjmp	.+1112   	; 0x4a6 <__vector_19>
      4e:	00 00       	nop
      50:	27 c0       	rjmp	.+78     	; 0xa0 <__bad_interrupt>
      52:	00 00       	nop
      54:	25 c0       	rjmp	.+74     	; 0xa0 <__bad_interrupt>
      56:	00 00       	nop
      58:	23 c0       	rjmp	.+70     	; 0xa0 <__bad_interrupt>
      5a:	00 00       	nop
      5c:	21 c0       	rjmp	.+66     	; 0xa0 <__bad_interrupt>
      5e:	00 00       	nop
      60:	1f c0       	rjmp	.+62     	; 0xa0 <__bad_interrupt>
      62:	00 00       	nop
      64:	1d c0       	rjmp	.+58     	; 0xa0 <__bad_interrupt>
	...

00000068 <__ctors_end>:
      68:	11 24       	eor	r1, r1
      6a:	1f be       	out	0x3f, r1	; 63
      6c:	cf ef       	ldi	r28, 0xFF	; 255
      6e:	d8 e0       	ldi	r29, 0x08	; 8
      70:	de bf       	out	0x3e, r29	; 62
      72:	cd bf       	out	0x3d, r28	; 61

00000074 <__do_copy_data>:
      74:	11 e0       	ldi	r17, 0x01	; 1
      76:	a0 e0       	ldi	r26, 0x00	; 0
      78:	b1 e0       	ldi	r27, 0x01	; 1
      7a:	ec e1       	ldi	r30, 0x1C	; 28
      7c:	f1 e1       	ldi	r31, 0x11	; 17
      7e:	02 c0       	rjmp	.+4      	; 0x84 <__do_copy_data+0x10>
      80:	05 90       	lpm	r0, Z+
      82:	0d 92       	st	X+, r0
      84:	a4 34       	cpi	r26, 0x44	; 68
      86:	b1 07       	cpc	r27, r17
      88:	d9 f7       	brne	.-10     	; 0x80 <__do_copy_data+0xc>

0000008a <__do_clear_bss>:
      8a:	23 e0       	ldi	r18, 0x03	; 3
      8c:	a4 e4       	ldi	r26, 0x44	; 68
      8e:	b1 e0       	ldi	r27, 0x01	; 1
      90:	01 c0       	rjmp	.+2      	; 0x94 <.do_clear_bss_start>

00000092 <.do_clear_bss_loop>:
      92:	1d 92       	st	X+, r1

00000094 <.do_clear_bss_start>:
      94:	a7 3a       	cpi	r26, 0xA7	; 167
      96:	b2 07       	cpc	r27, r18
      98:	e1 f7       	brne	.-8      	; 0x92 <.do_clear_bss_loop>
      9a:	fc d7       	rcall	.+4088   	; 0x1094 <main>
      9c:	0c 94 8c 08 	jmp	0x1118	; 0x1118 <_exit>

000000a0 <__bad_interrupt>:
      a0:	af cf       	rjmp	.-162    	; 0x0 <__vectors>

000000a2 <init_ws2812>:
//		lpm	r18,Z+					;Load byte from source 
//
// Assembler Manual /// https://sourceware.org/binutils/docs/as/index.html
///////////////////////////////////////////////////////////////////////////

		push r23
      a2:	7f 93       	push	r23

		in	r23,DDRB			// DDRB|=PIXEL_PIN;
      a4:	74 b1       	in	r23, 0x04	; 4
        ori r23,PIXEL_PIN
      a6:	72 60       	ori	r23, 0x02	; 2
        out DDRB,r23
      a8:	74 b9       	out	0x04, r23	; 4

		in	r23,PORTB
      aa:	75 b1       	in	r23, 0x05	; 5
		andi r23,~(PIXEL_PIN)		// PORTB&=~(PIXEL_PIN)
      ac:	7d 7f       	andi	r23, 0xFD	; 253
        out PORTB, r23
      ae:	75 b9       	out	0x05, r23	; 5
		call	delay
      b0:	3d d0       	rcall	.+122    	; 0x12c <delay>

		pop r23
      b2:	7f 91       	pop	r23
		ret	
      b4:	08 95       	ret

000000b6 <wrt_ws2812>:


wrt_ws2812:
		cli
      b6:	f8 94       	cli
		push pixdata
      b8:	0f 93       	push	r16
		push grb_count
      ba:	1f 93       	push	r17

		push BitCount
      bc:	4f 93       	push	r20

000000be <donext>:


donext:
		ldi r23,64  //numled
      be:	70 e4       	ldi	r23, 0x40	; 64
		mov	ZL,r24
      c0:	e8 2f       	mov	r30, r24
		mov	ZH,r25
loopg:

		call WritePix
      c2:	f9 2f       	mov	r31, r25

000000c4 <loopg>:
      c4:	07 d0       	rcall	.+14     	; 0xd4 <WritePix>
		dec r23
      c6:	7a 95       	dec	r23
		brne	loopg
      c8:	e9 f7       	brne	.-6      	; 0xc4 <loopg>

//		call delay
//		call delay

		pop	BitCount
      ca:	4f 91       	pop	r20
		pop grb_count
      cc:	1f 91       	pop	r17
		pop pixdata
      ce:	0f 91       	pop	r16
		sei
      d0:	78 94       	sei
		ret
      d2:	08 95       	ret

000000d4 <WritePix>:
* area in GRB order
* Registers used: R16-R21
*
********************/
WritePix:
		push r23
      d4:	7f 93       	push	r23
		ldi     grb_count,3		; 3 leds / pixel [Green Red Blue]
      d6:	13 e0       	ldi	r17, 0x03	; 3

000000d8 <next_led>:

next_led:
		ld		pixdata,Z+				; load led data (GRB)
      d8:	01 91       	ld	r16, Z+
		ldi		BitCount,8				; 8 bits / color
      da:	48 e0       	ldi	r20, 0x08	; 8

000000dc <nextbit>:
nextbit:

		in	r23,PORTB					//SetHI
      dc:	75 b1       	in	r23, 0x05	; 5
		ori r23,(PIXEL_PIN)				// PORTB|=PIXEL_PIN;
      de:	72 60       	ori	r23, 0x02	; 2
		out	PORTB,r23
      e0:	75 b9       	out	0x05, r23	; 5

		rol		pixdata		;[1]		//Next bit
      e2:	00 1f       	adc	r16, r16
		brcs	ES1		;[1/2]
      e4:	78 f0       	brcs	.+30     	; 0x104 <ES1>

000000e6 <ES0>:

ES0:	Delay1
      e6:	00 00       	nop

		in	r23,PORTB					// SetLO
      e8:	75 b1       	in	r23, 0x05	; 5
		andi r23,~(PIXEL_PIN)			// PORTB&=~(PIXEL_PIN)
      ea:	7d 7f       	andi	r23, 0xFD	; 253
		out	PORTB,r23
      ec:	75 b9       	out	0x05, r23	; 5
	...

		Delay8
		dec		BitCount
      fe:	4a 95       	dec	r20
		brne	nextbit
     100:	69 f7       	brne	.-38     	; 0xdc <nextbit>
		rjmp	txend					//All bits sent -> done!!
     102:	10 c0       	rjmp	.+32     	; 0x124 <txend>

00000104 <ES1>:
	...

ES1:
		Delay9
     114:	00 00       	nop

		in	r23,PORTB					//SetLO
     116:	75 b1       	in	r23, 0x05	; 5
		andi r23,~(PIXEL_PIN)			// PORTB&=~(PIXEL_PIN)
     118:	7d 7f       	andi	r23, 0xFD	; 253
		out	PORTB,r23
     11a:	75 b9       	out	0x05, r23	; 5


		Delay1                       
     11c:	00 00       	nop
		dec		BitCount
     11e:	4a 95       	dec	r20
		brne	nextbit
     120:	e9 f6       	brne	.-70     	; 0xdc <nextbit>
	...

00000124 <txend>:
		nop

txend:	dec		grb_count
     124:	1a 95       	dec	r17
		brne	next_led				// Next Led (color)
     126:	c1 f6       	brne	.-80     	; 0xd8 <next_led>

00000128 <txdone>:
	 

txdone:	pop	r23
     128:	7f 91       	pop	r23
		ret
     12a:	08 95       	ret

0000012c <delay>:




delay:  
		push r19
     12c:	3f 93       	push	r19
		push r20
     12e:	4f 93       	push	r20
		push r21
     130:	5f 93       	push	r21
		 
		ldi  r21, 50
     132:	52 e3       	ldi	r21, 0x32	; 50
		ldi  r19, TFAST	
     134:	3f ef       	ldi	r19, 0xFF	; 255
		ldi  r20, TSLOW
     136:	4f ef       	ldi	r20, 0xFF	; 255

00000138 <reload>:
reload:	dec  r19
     138:	3a 95       	dec	r19
		brne reload
     13a:	f1 f7       	brne	.-4      	; 0x138 <reload>
		ldi	r19,TFAST
     13c:	3f ef       	ldi	r19, 0xFF	; 255
		dec  r20
     13e:	4a 95       	dec	r20
		brne reload
     140:	d9 f7       	brne	.-10     	; 0x138 <reload>
		ldi  r20, TSLOW
     142:	4f ef       	ldi	r20, 0xFF	; 255
		dec	 r21
     144:	5a 95       	dec	r21
		brne reload
     146:	c1 f7       	brne	.-16     	; 0x138 <reload>

		pop  r21
     148:	5f 91       	pop	r21
		pop  r20
     14a:	4f 91       	pop	r20
		pop  r19
     14c:	3f 91       	pop	r19
		ret
     14e:	08 95       	ret

00000150 <wrt_Digit_Init>:
//*********************************************
//	wrt_Digit_Init
//	Inicializa sin sobreescribir los puertos para funcion wrt_digit
//*********************************************
wrt_Digit_Init:
	push PortOut
     150:	4f 93       	push	r20

	in PortOut, DDRD
     152:	4a b1       	in	r20, 0x0a	; 10
	ori PortOut, (SHIFT_CLOCK | LATCH_CLOCK | SERIAL_DATA)
     154:	41 69       	ori	r20, 0x91	; 145
	out DDRD, PortOut
     156:	4a b9       	out	0x0a, r20	; 10

	in PortOut, DDRB
     158:	44 b1       	in	r20, 0x04	; 4
	ori PortOut, SERIAL_DATA
     15a:	41 60       	ori	r20, 0x01	; 1
	out DDRB, PortOut
     15c:	44 b9       	out	0x04, r20	; 4

	pop PortOut
     15e:	4f 91       	pop	r20
	ret
     160:	08 95       	ret

00000162 <wrt_Digit>:
//	wrt_Digit
//	Recibe un valor y el dígito y lo muestra en el display. | 0>'P' | 1>'-' | 2>'1' | 3>'2' | 4>'W' | 5>'I' | 6>'N' | 7>empty
//	Argumentos de entrada: valor (0:6) en r22 / dígito (0-3) en r24.
//*********************************************
wrt_Digit:
	cpi ValueIn, 8	//Control para evitar ingresos mayores a 7
     162:	88 30       	cpi	r24, 0x08	; 8
	brge end
     164:	7c f4       	brge	.+30     	; 0x184 <end>
	cpi DigitIn, 4		//Tanto para la lista (.byte) como para el control, nos sirve que Digit sea de 0 -> 3
     166:	64 30       	cpi	r22, 0x04	; 4
	brge end
     168:	6c f4       	brge	.+26     	; 0x184 <end>

	rcall value_to_ss	//ingreso y retorno en r16 
     16a:	0d d0       	rcall	.+26     	; 0x186 <value_to_ss>
	rcall send_byte		//ingreso en r16
     16c:	1e d0       	rcall	.+60     	; 0x1aa <send_byte>

	rcall digit_to_display	//ingreso y retorno en r17
     16e:	14 d0       	rcall	.+40     	; 0x198 <digit_to_display>
	mov ValueIn, DigitIn
     170:	86 2f       	mov	r24, r22
	rcall send_byte
     172:	1b d0       	rcall	.+54     	; 0x1aa <send_byte>

	in PortOut, PIND
     174:	49 b1       	in	r20, 0x09	; 9
	ori PortOut, LATCH_CLOCK
     176:	40 61       	ori	r20, 0x10	; 16
	out PORTD, PortOut
     178:	4b b9       	out	0x0b, r20	; 11
	nop
     17a:	00 00       	nop
	nop
     17c:	00 00       	nop
	in PortOut, PIND
     17e:	49 b1       	in	r20, 0x09	; 9
	andi PortOut, ~LATCH_CLOCK
     180:	4f 7e       	andi	r20, 0xEF	; 239
	out PORTD, PortOut
     182:	4b b9       	out	0x0b, r20	; 11

00000184 <end>:

	end:
		ret
     184:	08 95       	ret

00000186 <value_to_ss>:
//	value_to_ss
//	Toma un valor de ingreso y lo convierte a su valor en el display de ss.
//	Argumento de ingreso y retorno en ValueIn (r24). Valores válidos (0:3)
//**********************************************************
value_to_ss:
	push ADCRegister
     186:	5f 93       	push	r21
	ldi ADCRegister, 0
     188:	50 e0       	ldi	r21, 0x00	; 0
  
	ldz ss_value
     18a:	e4 ee       	ldi	r30, 0xE4	; 228
     18c:	f1 e0       	ldi	r31, 0x01	; 1
	
	add ZL, ValueIn	//Agregamos el valor ingresado, para que Z apunte al valor correspondiente de la lista
     18e:	e8 0f       	add	r30, r24
	adc ZH, ADCRegister
     190:	f5 1f       	adc	r31, r21
	
	lpm ValueIn, Z
     192:	84 91       	lpm	r24, Z
  
	pop ADCRegister
     194:	5f 91       	pop	r21
	ret
     196:	08 95       	ret

00000198 <digit_to_display>:
//	digit_to_display:
//	Toma un digito de ingreso y lo convierte a su valor en el display.
//	Argumento de entrada y retorno en r17. Valores válidos (0:3)
//**********************************************************
digit_to_display:
  push ADCRegister
     198:	5f 93       	push	r21
  ldi ADCRegister, 0
     19a:	50 e0       	ldi	r21, 0x00	; 0

	ldz display_digit_value
     19c:	ec ee       	ldi	r30, 0xEC	; 236
     19e:	f1 e0       	ldi	r31, 0x01	; 1

	add ZL, DigitIn
     1a0:	e6 0f       	add	r30, r22
	adc ZH, ADCRegister
     1a2:	f5 1f       	adc	r31, r21
	lpm DigitIn, Z
     1a4:	64 91       	lpm	r22, Z
  
  pop ADCRegister
     1a6:	5f 91       	pop	r21
	ret
     1a8:	08 95       	ret

000001aa <send_byte>:
// Esta función toma un byte de ingreso y lo envía al 74HC595
// Argumento de entrada r16.
//*************************************************

send_byte:
	push TimesCounter
     1aa:	7f 93       	push	r23
	push SerialData
     1ac:	2f 93       	push	r18
	push PortOut
     1ae:	4f 93       	push	r20
	push ADCRegister
     1b0:	5f 93       	push	r21

	ldi TimesCounter, 8
     1b2:	78 e0       	ldi	r23, 0x08	; 8
	ldi ADCRegister, 0
     1b4:	50 e0       	ldi	r21, 0x00	; 0

000001b6 <loadLoop>:
	
	loadLoop:
		ldi SerialData, 0
     1b6:	20 e0       	ldi	r18, 0x00	; 0

		ror ValueIn
     1b8:	87 95       	ror	r24
		adc SerialData, ADCRegister
     1ba:	25 1f       	adc	r18, r21

		in PortOut, PINB
     1bc:	43 b1       	in	r20, 0x03	; 3
		andi PortOut, ~SERIAL_DATA
     1be:	4e 7f       	andi	r20, 0xFE	; 254
		or PortOut, SerialData
     1c0:	42 2b       	or	r20, r18
		out PORTB, PortOut
     1c2:	45 b9       	out	0x05, r20	; 5

		in PortOut, PIND
     1c4:	49 b1       	in	r20, 0x09	; 9
		ori PortOut, SHIFT_CLOCK
     1c6:	40 68       	ori	r20, 0x80	; 128
		out PORTD, PortOut
     1c8:	4b b9       	out	0x0b, r20	; 11
		nop		//Delay necesario para evitar fallos con la carga del dato
     1ca:	00 00       	nop
		nop
     1cc:	00 00       	nop
		in PortOut, PIND
     1ce:	49 b1       	in	r20, 0x09	; 9
		andi PortOut, ~SHIFT_CLOCK
     1d0:	4f 77       	andi	r20, 0x7F	; 127
		out PORTD, PortOut
     1d2:	4b b9       	out	0x0b, r20	; 11

		dec TimesCounter
     1d4:	7a 95       	dec	r23
		cpi TimesCounter, 0
     1d6:	70 30       	cpi	r23, 0x00	; 0
		brne loadLoop		//Finaliza el Loop luego de cargar el último bit (8 veces)
     1d8:	71 f7       	brne	.-36     	; 0x1b6 <loadLoop>
	
	pop ADCRegister
     1da:	5f 91       	pop	r21
	pop PortOut
     1dc:	4f 91       	pop	r20
	pop SerialData
     1de:	2f 91       	pop	r18
	pop TimesCounter
     1e0:	7f 91       	pop	r23
	ret
     1e2:	08 95       	ret

000001e4 <ss_value>:
     1e4:	31 fd       	sbrc	r19, 1
     1e6:	9f 25       	eor	r25, r15
     1e8:	ab 9f       	mul	r26, r27
     1ea:	d5 ff       	sbrs	r29, 5

000001ec <display_digit_value>:
     1ec:	80 40       	sbci	r24, 0x00	; 0
     1ee:	20 10       	cpse	r2, r0

000001f0 <adc_init>:
#include "stdlib.h"
void USART_putstring(char* StringPtr);

void adc_init(void){
	
	ADCSRA |= ((1<<ADPS2)|(1<<ADPS1)|(1<<ADPS0));    //16Mhz/128 = 125Khz the ADC reference clock
     1f0:	ea e7       	ldi	r30, 0x7A	; 122
     1f2:	f0 e0       	ldi	r31, 0x00	; 0
     1f4:	80 81       	ld	r24, Z
     1f6:	87 60       	ori	r24, 0x07	; 7
     1f8:	80 83       	st	Z, r24
	ADMUX |= (1<<REFS0);                //Voltage reference from Avcc (5v)
     1fa:	ac e7       	ldi	r26, 0x7C	; 124
     1fc:	b0 e0       	ldi	r27, 0x00	; 0
     1fe:	8c 91       	ld	r24, X
     200:	80 64       	ori	r24, 0x40	; 64
     202:	8c 93       	st	X, r24
	ADCSRA |= (1<<ADEN);                //Turn on ADC
     204:	80 81       	ld	r24, Z
     206:	80 68       	ori	r24, 0x80	; 128
     208:	80 83       	st	Z, r24
	ADCSRA |= (1<<ADSC);                //Do an initial conversion because this one is the slowest and to ensure that everything is up and running
     20a:	80 81       	ld	r24, Z
     20c:	80 64       	ori	r24, 0x40	; 64
     20e:	80 83       	st	Z, r24
     210:	08 95       	ret

00000212 <read_adc>:
}

uint16_t read_adc(uint8_t channel){
	ADMUX &= 0xF0;                    //Clear the older channel that was read
     212:	ec e7       	ldi	r30, 0x7C	; 124
     214:	f0 e0       	ldi	r31, 0x00	; 0
     216:	90 81       	ld	r25, Z
     218:	90 7f       	andi	r25, 0xF0	; 240
     21a:	90 83       	st	Z, r25
	ADMUX |= channel;                //Defines the new ADC channel to be read
     21c:	90 81       	ld	r25, Z
     21e:	89 2b       	or	r24, r25
     220:	80 83       	st	Z, r24
	ADCSRA |= (1<<ADSC);            //Starts a new conversion
     222:	ea e7       	ldi	r30, 0x7A	; 122
     224:	f0 e0       	ldi	r31, 0x00	; 0
     226:	80 81       	ld	r24, Z
     228:	80 64       	ori	r24, 0x40	; 64
     22a:	80 83       	st	Z, r24
	while(ADCSRA & (1<<ADSC));      //Wait until the conversion is done
     22c:	80 81       	ld	r24, Z
     22e:	86 fd       	sbrc	r24, 6
     230:	fd cf       	rjmp	.-6      	; 0x22c <read_adc+0x1a>
	return ADCW;                    //Returns the ADC value of the chosen channel
     232:	80 91 78 00 	lds	r24, 0x0078	; 0x800078 <__TEXT_REGION_LENGTH__+0x7f8078>
     236:	90 91 79 00 	lds	r25, 0x0079	; 0x800079 <__TEXT_REGION_LENGTH__+0x7f8079>
}
     23a:	08 95       	ret

0000023c <read_VRY>:



uint16_t read_VRY(void)
{
	return read_adc(4);
     23c:	84 e0       	ldi	r24, 0x04	; 4
     23e:	e9 cf       	rjmp	.-46     	; 0x212 <read_adc>
} 
     240:	08 95       	ret

00000242 <read_VRX>:
uint16_t read_VRX(void)
{
	return read_adc(5);
     242:	85 e0       	ldi	r24, 0x05	; 5
     244:	e6 cf       	rjmp	.-52     	; 0x212 <read_adc>
     246:	08 95       	ret

00000248 <QueueInit>:
*/
void QueueInit(void)

{

	pin=buffer;	//set up pin,pout and "news" counter 	
     248:	89 e4       	ldi	r24, 0x49	; 73
     24a:	91 e0       	ldi	r25, 0x01	; 1
     24c:	90 93 47 01 	sts	0x0147, r25	; 0x800147 <pin+0x1>
     250:	80 93 46 01 	sts	0x0146, r24	; 0x800146 <pin>
	pout=buffer;
     254:	90 93 45 01 	sts	0x0145, r25	; 0x800145 <__data_end+0x1>
     258:	80 93 44 01 	sts	0x0144, r24	; 0x800144 <__data_end>
	news=0;
     25c:	10 92 48 01 	sts	0x0148, r1	; 0x800148 <news>
     260:	08 95       	ret

00000262 <PushQueue>:
*/
unsigned char PushQueue(unsigned char data)

{
	
	if (news > QSIZE-1)		//test for Queue overflow
     262:	90 91 48 01 	lds	r25, 0x0148	; 0x800148 <news>
     266:	94 31       	cpi	r25, 0x14	; 20
     268:	20 f0       	brcs	.+8      	; 0x272 <PushQueue+0x10>
	{
		news=QOVERFLOW;		// inform queue has overflowed
     26a:	8f ef       	ldi	r24, 0xFF	; 255
     26c:	80 93 48 01 	sts	0x0148, r24	; 0x800148 <news>
		return (news);		
     270:	08 95       	ret
	}	

	*pin++=data;			// pull data
     272:	e0 91 46 01 	lds	r30, 0x0146	; 0x800146 <pin>
     276:	f0 91 47 01 	lds	r31, 0x0147	; 0x800147 <pin+0x1>
     27a:	9f 01       	movw	r18, r30
     27c:	2f 5f       	subi	r18, 0xFF	; 255
     27e:	3f 4f       	sbci	r19, 0xFF	; 255
     280:	30 93 47 01 	sts	0x0147, r19	; 0x800147 <pin+0x1>
     284:	20 93 46 01 	sts	0x0146, r18	; 0x800146 <pin>
     288:	80 83       	st	Z, r24
	news++;				// update "news" counter
     28a:	81 e0       	ldi	r24, 0x01	; 1
     28c:	89 0f       	add	r24, r25
     28e:	80 93 48 01 	sts	0x0148, r24	; 0x800148 <news>

	if (pin == buffer+QSIZE)	// if queue size is exceded reset pointer
     292:	2d 55       	subi	r18, 0x5D	; 93
     294:	31 40       	sbci	r19, 0x01	; 1
     296:	31 f4       	brne	.+12     	; 0x2a4 <PushQueue+0x42>
		pin=buffer;
     298:	29 e4       	ldi	r18, 0x49	; 73
     29a:	31 e0       	ldi	r19, 0x01	; 1
     29c:	30 93 47 01 	sts	0x0147, r19	; 0x800147 <pin+0x1>
     2a0:	20 93 46 01 	sts	0x0146, r18	; 0x800146 <pin>

	return(news);			// inform Queue state
}
     2a4:	08 95       	ret

000002a6 <checkJoystick>:


// Sets the extern variables xMovement and yMovement to -1, 0, 1 depending on the Joystick state.
void checkJoystick(void)
{
	if(read_VRX() > HI_LIM)
     2a6:	cd df       	rcall	.-102    	; 0x242 <read_VRX>
     2a8:	89 35       	cpi	r24, 0x59	; 89
     2aa:	92 40       	sbci	r25, 0x02	; 2
     2ac:	40 f0       	brcs	.+16     	; 0x2be <checkJoystick+0x18>
	{
		if (xMovement <= 6)
     2ae:	80 91 61 01 	lds	r24, 0x0161	; 0x800161 <xMovement>
     2b2:	87 30       	cpi	r24, 0x07	; 7
     2b4:	7c f4       	brge	.+30     	; 0x2d4 <checkJoystick+0x2e>
			xMovement += 1;
     2b6:	8f 5f       	subi	r24, 0xFF	; 255
     2b8:	80 93 61 01 	sts	0x0161, r24	; 0x800161 <xMovement>
	}
	else if (read_VRX() < LO_LIM)
     2bc:	0b c0       	rjmp	.+22     	; 0x2d4 <checkJoystick+0x2e>
     2be:	c1 df       	rcall	.-126    	; 0x242 <read_VRX>
     2c0:	80 39       	cpi	r24, 0x90	; 144
     2c2:	91 40       	sbci	r25, 0x01	; 1
     2c4:	38 f4       	brcc	.+14     	; 0x2d4 <checkJoystick+0x2e>
	{
		if (xMovement >= 1)
     2c6:	80 91 61 01 	lds	r24, 0x0161	; 0x800161 <xMovement>
     2ca:	18 16       	cp	r1, r24
     2cc:	1c f4       	brge	.+6      	; 0x2d4 <checkJoystick+0x2e>
			xMovement -= 1;
     2ce:	81 50       	subi	r24, 0x01	; 1
     2d0:	80 93 61 01 	sts	0x0161, r24	; 0x800161 <xMovement>
	}
	
	if(read_VRY() > HI_LIM)
     2d4:	b3 df       	rcall	.-154    	; 0x23c <read_VRY>
     2d6:	89 35       	cpi	r24, 0x59	; 89
     2d8:	92 40       	sbci	r25, 0x02	; 2
     2da:	40 f0       	brcs	.+16     	; 0x2ec <checkJoystick+0x46>
	{
		if (yMovement >= 1)
     2dc:	80 91 60 01 	lds	r24, 0x0160	; 0x800160 <yMovement>
     2e0:	18 16       	cp	r1, r24
     2e2:	7c f4       	brge	.+30     	; 0x302 <checkJoystick+0x5c>
			yMovement -= 1;
     2e4:	81 50       	subi	r24, 0x01	; 1
     2e6:	80 93 60 01 	sts	0x0160, r24	; 0x800160 <yMovement>
	}
	else if (read_VRY() < LO_LIM)
     2ea:	08 95       	ret
     2ec:	a7 df       	rcall	.-178    	; 0x23c <read_VRY>
     2ee:	80 39       	cpi	r24, 0x90	; 144
     2f0:	91 40       	sbci	r25, 0x01	; 1
     2f2:	38 f4       	brcc	.+14     	; 0x302 <checkJoystick+0x5c>
	{
		if (yMovement <= 6)
     2f4:	80 91 60 01 	lds	r24, 0x0160	; 0x800160 <yMovement>
     2f8:	87 30       	cpi	r24, 0x07	; 7
     2fa:	1c f4       	brge	.+6      	; 0x302 <checkJoystick+0x5c>
			yMovement += 1;
     2fc:	8f 5f       	subi	r24, 0xFF	; 255
     2fe:	80 93 60 01 	sts	0x0160, r24	; 0x800160 <yMovement>
     302:	08 95       	ret

00000304 <checkJoystickButton>:
	}
}

void checkJoystickButton(void)
{
	jButton = (PIND & JOYSTICK);	// Gets 0 for pressed and (1<<6) for button unpressed.
     304:	89 b1       	in	r24, 0x09	; 9
     306:	80 74       	andi	r24, 0x40	; 64
     308:	80 93 00 01 	sts	0x0100, r24	; 0x800100 <__DATA_REGION_ORIGIN__>
     30c:	08 95       	ret

0000030e <init_RTI>:
	//  COM0A1=0,COM0A0=0 Normal port operation, OC0A disconnected.
	//


	// 1-Timer Mode: CTC
	TCCR0A=(0<<COM0A1)|(0<<COM0A0)|(0<<COM0B1)|(0<<COM0B0)|(1<<WGM01)|(0<<WGM00);
     30e:	82 e0       	ldi	r24, 0x02	; 2
     310:	84 bd       	out	0x24, r24	; 36
	
	

	// 2-Clock select:Prescaler=1024
	TCCR0B=(0<<FOC0A)|(0<<FOC0B)|(0<<WGM02)|PRESCALER;
     312:	94 e0       	ldi	r25, 0x04	; 4
     314:	95 bd       	out	0x25, r25	; 37
	

	// 3-Set OCR
	OCR0A=125;
     316:	9d e7       	ldi	r25, 0x7D	; 125
     318:	97 bd       	out	0x27, r25	; 39


	// 4-Timer/Counter0 Output Compare Match A Interrupt Enable
	TIMSK0=(0<<OCIE0B)|(1<<OCIE0A)|(0<<TOIE0);
     31a:	80 93 6e 00 	sts	0x006E, r24	; 0x80006e <__TEXT_REGION_LENGTH__+0x7f806e>
	
	// This is for testing purposes (Blinking Led)

	DDRB|=LED;
     31e:	25 9a       	sbi	0x04, 5	; 4
	PORTB&=~(LED);
     320:	2d 98       	cbi	0x05, 5	; 5
     322:	08 95       	ret

00000324 <__vector_14>:


//Interrupt service routine (ISR) for Timer 0
// Timer int happens every (16MHz)^(-1)*256*125 = 62.5ns*256*125 = 64 * 125 useg = 2mseg
ISR(TIMER0_COMPA_vect)
{
     324:	1f 92       	push	r1
     326:	0f 92       	push	r0
     328:	0f b6       	in	r0, 0x3f	; 63
     32a:	0f 92       	push	r0
     32c:	11 24       	eor	r1, r1
     32e:	2f 93       	push	r18
     330:	3f 93       	push	r19
     332:	4f 93       	push	r20
     334:	5f 93       	push	r21
     336:	6f 93       	push	r22
     338:	7f 93       	push	r23
     33a:	8f 93       	push	r24
     33c:	9f 93       	push	r25
     33e:	af 93       	push	r26
     340:	bf 93       	push	r27
     342:	ef 93       	push	r30
     344:	ff 93       	push	r31
	volatile static int countSS = SEVEN_SEGMENTS_TIME;
	volatile static int countJoystick = JOYSTICK_TIME;
	
	// Writes the corresponding player (P-1 or P-2) or the winner on the Seven Segments Display
	wrt_Digit(ssP1[countSS], countSS);
     346:	60 91 03 01 	lds	r22, 0x0103	; 0x800103 <countSS.2236>
     34a:	70 91 04 01 	lds	r23, 0x0104	; 0x800104 <countSS.2236+0x1>
     34e:	e0 91 03 01 	lds	r30, 0x0103	; 0x800103 <countSS.2236>
     352:	f0 91 04 01 	lds	r31, 0x0104	; 0x800104 <countSS.2236+0x1>
     356:	e1 5c       	subi	r30, 0xC1	; 193
     358:	fe 4f       	sbci	r31, 0xFE	; 254
     35a:	80 81       	ld	r24, Z
     35c:	02 df       	rcall	.-508    	; 0x162 <wrt_Digit>
	
	if (playerTurn == 1)
     35e:	80 91 62 01 	lds	r24, 0x0162	; 0x800162 <playerTurn>
     362:	81 30       	cpi	r24, 0x01	; 1
     364:	69 f4       	brne	.+26     	; 0x380 <__vector_14+0x5c>
		wrt_Digit(ssP1[countSS], countSS);
     366:	60 91 03 01 	lds	r22, 0x0103	; 0x800103 <countSS.2236>
     36a:	70 91 04 01 	lds	r23, 0x0104	; 0x800104 <countSS.2236+0x1>
     36e:	e0 91 03 01 	lds	r30, 0x0103	; 0x800103 <countSS.2236>
     372:	f0 91 04 01 	lds	r31, 0x0104	; 0x800104 <countSS.2236+0x1>
     376:	e1 5c       	subi	r30, 0xC1	; 193
     378:	fe 4f       	sbci	r31, 0xFE	; 254
     37a:	80 81       	ld	r24, Z
     37c:	f2 de       	rcall	.-540    	; 0x162 <wrt_Digit>
     37e:	3d c0       	rjmp	.+122    	; 0x3fa <__vector_14+0xd6>
	else if (playerTurn == 2)
     380:	82 30       	cpi	r24, 0x02	; 2
     382:	69 f4       	brne	.+26     	; 0x39e <__vector_14+0x7a>
		wrt_Digit(ssP2[countSS], countSS);
     384:	60 91 03 01 	lds	r22, 0x0103	; 0x800103 <countSS.2236>
     388:	70 91 04 01 	lds	r23, 0x0104	; 0x800104 <countSS.2236+0x1>
     38c:	e0 91 03 01 	lds	r30, 0x0103	; 0x800103 <countSS.2236>
     390:	f0 91 04 01 	lds	r31, 0x0104	; 0x800104 <countSS.2236+0x1>
     394:	e5 5c       	subi	r30, 0xC5	; 197
     396:	fe 4f       	sbci	r31, 0xFE	; 254
     398:	80 81       	ld	r24, Z
     39a:	e3 de       	rcall	.-570    	; 0x162 <wrt_Digit>
     39c:	2e c0       	rjmp	.+92     	; 0x3fa <__vector_14+0xd6>
	else if ((playerTurn == 3) | (playerTurn == 4))
     39e:	9d ef       	ldi	r25, 0xFD	; 253
     3a0:	98 0f       	add	r25, r24
     3a2:	92 30       	cpi	r25, 0x02	; 2
     3a4:	50 f5       	brcc	.+84     	; 0x3fa <__vector_14+0xd6>
		{
			if (countSS == 0)
     3a6:	20 91 03 01 	lds	r18, 0x0103	; 0x800103 <countSS.2236>
     3aa:	30 91 04 01 	lds	r19, 0x0104	; 0x800104 <countSS.2236+0x1>
     3ae:	23 2b       	or	r18, r19
				wrt_Digit(LETTER_W, 0);
     3b0:	21 f4       	brne	.+8      	; 0x3ba <__vector_14+0x96>
     3b2:	60 e0       	ldi	r22, 0x00	; 0
     3b4:	84 e0       	ldi	r24, 0x04	; 4
     3b6:	d5 de       	rcall	.-598    	; 0x162 <wrt_Digit>
     3b8:	20 c0       	rjmp	.+64     	; 0x3fa <__vector_14+0xd6>
			else if (countSS == 1)
     3ba:	20 91 03 01 	lds	r18, 0x0103	; 0x800103 <countSS.2236>
     3be:	30 91 04 01 	lds	r19, 0x0104	; 0x800104 <countSS.2236+0x1>
     3c2:	21 30       	cpi	r18, 0x01	; 1
     3c4:	31 05       	cpc	r19, r1
				wrt_Digit(LETTER_I, 1);
     3c6:	21 f4       	brne	.+8      	; 0x3d0 <__vector_14+0xac>
     3c8:	61 e0       	ldi	r22, 0x01	; 1
     3ca:	85 e0       	ldi	r24, 0x05	; 5
     3cc:	ca de       	rcall	.-620    	; 0x162 <wrt_Digit>
     3ce:	15 c0       	rjmp	.+42     	; 0x3fa <__vector_14+0xd6>
			else if (countSS == 2)
     3d0:	20 91 03 01 	lds	r18, 0x0103	; 0x800103 <countSS.2236>
     3d4:	30 91 04 01 	lds	r19, 0x0104	; 0x800104 <countSS.2236+0x1>
     3d8:	22 30       	cpi	r18, 0x02	; 2
     3da:	31 05       	cpc	r19, r1
				wrt_Digit(LETTER_N, 2);
     3dc:	21 f4       	brne	.+8      	; 0x3e6 <__vector_14+0xc2>
     3de:	62 e0       	ldi	r22, 0x02	; 2
     3e0:	86 e0       	ldi	r24, 0x06	; 6
     3e2:	bf de       	rcall	.-642    	; 0x162 <wrt_Digit>
     3e4:	0a c0       	rjmp	.+20     	; 0x3fa <__vector_14+0xd6>
			else if (countSS == 3)
     3e6:	20 91 03 01 	lds	r18, 0x0103	; 0x800103 <countSS.2236>
     3ea:	30 91 04 01 	lds	r19, 0x0104	; 0x800104 <countSS.2236+0x1>
     3ee:	23 30       	cpi	r18, 0x03	; 3
     3f0:	31 05       	cpc	r19, r1
				wrt_Digit(playerTurn-1, 3);		// Numbers '1' and '2' in the display are the numbers 2 and 3 inputs.	
     3f2:	19 f4       	brne	.+6      	; 0x3fa <__vector_14+0xd6>
     3f4:	63 e0       	ldi	r22, 0x03	; 3
     3f6:	81 50       	subi	r24, 0x01	; 1
     3f8:	b4 de       	rcall	.-664    	; 0x162 <wrt_Digit>
		}
	
	if (countSS)
     3fa:	80 91 03 01 	lds	r24, 0x0103	; 0x800103 <countSS.2236>
     3fe:	90 91 04 01 	lds	r25, 0x0104	; 0x800104 <countSS.2236+0x1>
     402:	89 2b       	or	r24, r25
     404:	51 f0       	breq	.+20     	; 0x41a <__EEPROM_REGION_LENGTH__+0x1a>
		countSS--;
     406:	80 91 03 01 	lds	r24, 0x0103	; 0x800103 <countSS.2236>
     40a:	90 91 04 01 	lds	r25, 0x0104	; 0x800104 <countSS.2236+0x1>
     40e:	01 97       	sbiw	r24, 0x01	; 1
     410:	90 93 04 01 	sts	0x0104, r25	; 0x800104 <countSS.2236+0x1>
     414:	80 93 03 01 	sts	0x0103, r24	; 0x800103 <countSS.2236>
     418:	06 c0       	rjmp	.+12     	; 0x426 <__EEPROM_REGION_LENGTH__+0x26>
	else
		countSS = SEVEN_SEGMENTS_TIME;
     41a:	83 e0       	ldi	r24, 0x03	; 3
     41c:	90 e0       	ldi	r25, 0x00	; 0
     41e:	90 93 04 01 	sts	0x0104, r25	; 0x800104 <countSS.2236+0x1>
     422:	80 93 03 01 	sts	0x0103, r24	; 0x800103 <countSS.2236>
	
	// Joystick movement is scanned every 100 ms and saved on x/yMovement
	if (countJoystick)
     426:	80 91 01 01 	lds	r24, 0x0101	; 0x800101 <countJoystick.2237>
     42a:	90 91 02 01 	lds	r25, 0x0102	; 0x800102 <countJoystick.2237+0x1>
     42e:	89 2b       	or	r24, r25
     430:	51 f0       	breq	.+20     	; 0x446 <__EEPROM_REGION_LENGTH__+0x46>
		countJoystick--;
     432:	80 91 01 01 	lds	r24, 0x0101	; 0x800101 <countJoystick.2237>
     436:	90 91 02 01 	lds	r25, 0x0102	; 0x800102 <countJoystick.2237+0x1>
     43a:	01 97       	sbiw	r24, 0x01	; 1
     43c:	90 93 02 01 	sts	0x0102, r25	; 0x800102 <countJoystick.2237+0x1>
     440:	80 93 01 01 	sts	0x0101, r24	; 0x800101 <countJoystick.2237>
	else 
	{
		countJoystick = JOYSTICK_TIME;
     444:	08 c0       	rjmp	.+16     	; 0x456 <__EEPROM_REGION_LENGTH__+0x56>
     446:	82 e3       	ldi	r24, 0x32	; 50
     448:	90 e0       	ldi	r25, 0x00	; 0
     44a:	90 93 02 01 	sts	0x0102, r25	; 0x800102 <countJoystick.2237+0x1>
		checkJoystick();
     44e:	80 93 01 01 	sts	0x0101, r24	; 0x800101 <countJoystick.2237>
		checkJoystickButton();
     452:	29 df       	rcall	.-430    	; 0x2a6 <checkJoystick>
     454:	57 df       	rcall	.-338    	; 0x304 <checkJoystickButton>
	}
     456:	ff 91       	pop	r31
     458:	ef 91       	pop	r30
     45a:	bf 91       	pop	r27
     45c:	af 91       	pop	r26
     45e:	9f 91       	pop	r25
     460:	8f 91       	pop	r24
     462:	7f 91       	pop	r23
     464:	6f 91       	pop	r22
     466:	5f 91       	pop	r21
     468:	4f 91       	pop	r20
     46a:	3f 91       	pop	r19
     46c:	2f 91       	pop	r18
     46e:	0f 90       	pop	r0
     470:	0f be       	out	0x3f, r0	; 63
     472:	0f 90       	pop	r0
     474:	1f 90       	pop	r1
     476:	18 95       	reti

00000478 <UART_Init>:
}

void UART_TransmitInterrupt(uint8_t Buffer)
{
	USART_TransmitBuffer = Buffer;
	UCSR0B |= DATA_REGISTER_EMPTY_INTERRUPT; // Enables the Interrupt
     478:	10 92 c5 00 	sts	0x00C5, r1	; 0x8000c5 <__TEXT_REGION_LENGTH__+0x7f80c5>
     47c:	87 e6       	ldi	r24, 0x67	; 103
     47e:	80 93 c4 00 	sts	0x00C4, r24	; 0x8000c4 <__TEXT_REGION_LENGTH__+0x7f80c4>
     482:	86 e0       	ldi	r24, 0x06	; 6
     484:	80 93 c2 00 	sts	0x00C2, r24	; 0x8000c2 <__TEXT_REGION_LENGTH__+0x7f80c2>
     488:	e1 ec       	ldi	r30, 0xC1	; 193
     48a:	f0 e0       	ldi	r31, 0x00	; 0
     48c:	88 e1       	ldi	r24, 0x18	; 24
     48e:	80 83       	st	Z, r24
     490:	80 81       	ld	r24, Z
     492:	80 68       	ori	r24, 0x80	; 128
     494:	80 83       	st	Z, r24
     496:	d8 de       	rcall	.-592    	; 0x248 <QueueInit>
     498:	8f e9       	ldi	r24, 0x9F	; 159
     49a:	9f e0       	ldi	r25, 0x0F	; 15
     49c:	01 97       	sbiw	r24, 0x01	; 1
     49e:	f1 f7       	brne	.-4      	; 0x49c <UART_Init+0x24>
     4a0:	00 c0       	rjmp	.+0      	; 0x4a2 <UART_Init+0x2a>
     4a2:	00 00       	nop
     4a4:	08 95       	ret

000004a6 <__vector_19>:
// ================================== TX & RX ISR ==================================


//======= TX ISR =======================
ISR(USART_UDRE_vect)
{
     4a6:	1f 92       	push	r1
     4a8:	0f 92       	push	r0
     4aa:	0f b6       	in	r0, 0x3f	; 63
     4ac:	0f 92       	push	r0
     4ae:	11 24       	eor	r1, r1
     4b0:	8f 93       	push	r24
     4b2:	ef 93       	push	r30
     4b4:	ff 93       	push	r31
	UDR0 = USART_TransmitBuffer;
     4b6:	80 91 64 01 	lds	r24, 0x0164	; 0x800164 <USART_TransmitBuffer>
     4ba:	80 93 c6 00 	sts	0x00C6, r24	; 0x8000c6 <__TEXT_REGION_LENGTH__+0x7f80c6>
	UCSR0B &= ~DATA_REGISTER_EMPTY_INTERRUPT; // Disables the Interrupt, uncomment for one time transmission of data
     4be:	e1 ec       	ldi	r30, 0xC1	; 193
     4c0:	f0 e0       	ldi	r31, 0x00	; 0
     4c2:	80 81       	ld	r24, Z
     4c4:	8f 7d       	andi	r24, 0xDF	; 223
     4c6:	80 83       	st	Z, r24
}
     4c8:	ff 91       	pop	r31
     4ca:	ef 91       	pop	r30
     4cc:	8f 91       	pop	r24
     4ce:	0f 90       	pop	r0
     4d0:	0f be       	out	0x3f, r0	; 63
     4d2:	0f 90       	pop	r0
     4d4:	1f 90       	pop	r1
     4d6:	18 95       	reti

000004d8 <__vector_18>:

//============== RX ISR =======================
ISR(USART_RX_vect)
{
     4d8:	1f 92       	push	r1
     4da:	0f 92       	push	r0
     4dc:	0f b6       	in	r0, 0x3f	; 63
     4de:	0f 92       	push	r0
     4e0:	11 24       	eor	r1, r1
     4e2:	2f 93       	push	r18
     4e4:	3f 93       	push	r19
     4e6:	4f 93       	push	r20
     4e8:	5f 93       	push	r21
     4ea:	6f 93       	push	r22
     4ec:	7f 93       	push	r23
     4ee:	8f 93       	push	r24
     4f0:	9f 93       	push	r25
     4f2:	af 93       	push	r26
     4f4:	bf 93       	push	r27
     4f6:	ef 93       	push	r30
     4f8:	ff 93       	push	r31
	PushQueue(UDR0);
     4fa:	80 91 c6 00 	lds	r24, 0x00C6	; 0x8000c6 <__TEXT_REGION_LENGTH__+0x7f80c6>
     4fe:	b1 de       	rcall	.-670    	; 0x262 <PushQueue>
}
     500:	ff 91       	pop	r31
     502:	ef 91       	pop	r30
     504:	bf 91       	pop	r27
     506:	af 91       	pop	r26
     508:	9f 91       	pop	r25
     50a:	8f 91       	pop	r24
     50c:	7f 91       	pop	r23
     50e:	6f 91       	pop	r22
     510:	5f 91       	pop	r21
     512:	4f 91       	pop	r20
     514:	3f 91       	pop	r19
     516:	2f 91       	pop	r18
     518:	0f 90       	pop	r0
     51a:	0f be       	out	0x3f, r0	; 63
     51c:	0f 90       	pop	r0
     51e:	1f 90       	pop	r1
     520:	18 95       	reti

00000522 <checkPlayer1Win>:
	playerTurn = 1;
}

/* Returns 1 if player1 Won.*/
uint8_t checkPlayer1Win(void)
{
     522:	cf 93       	push	r28
     524:	df 93       	push	r29
     526:	cd b7       	in	r28, 0x3d	; 61
     528:	de b7       	in	r29, 0x3e	; 62
     52a:	27 97       	sbiw	r28, 0x07	; 7
     52c:	0f b6       	in	r0, 0x3f	; 63
     52e:	f8 94       	cli
     530:	de bf       	out	0x3e, r29	; 62
     532:	0f be       	out	0x3f, r0	; 63
     534:	cd bf       	out	0x3d, r28	; 61
	uint8_t checks[7] = {0, 0, 0, 0, 0, 0, 0};
     536:	de 01       	movw	r26, r28
     538:	11 96       	adiw	r26, 0x01	; 1
     53a:	87 e0       	ldi	r24, 0x07	; 7
     53c:	fd 01       	movw	r30, r26
     53e:	11 92       	st	Z+, r1
     540:	8a 95       	dec	r24
     542:	e9 f7       	brne	.-6      	; 0x53e <checkPlayer1Win+0x1c>
     544:	e1 e1       	ldi	r30, 0x11	; 17
     546:	f1 e0       	ldi	r31, 0x01	; 1
     548:	2a e1       	ldi	r18, 0x1A	; 26
     54a:	31 e0       	ldi	r19, 0x01	; 1
	for (uint8_t c=0; c<=2; c++)
	{
		if (submarinosJugador2[c].boolDisparado == 1)
			checks[c] = 1;
     54c:	91 e0       	ldi	r25, 0x01	; 1
uint8_t checkPlayer1Win(void)
{
	uint8_t checks[7] = {0, 0, 0, 0, 0, 0, 0};
	for (uint8_t c=0; c<=2; c++)
	{
		if (submarinosJugador2[c].boolDisparado == 1)
     54e:	82 81       	ldd	r24, Z+2	; 0x02
     550:	81 30       	cpi	r24, 0x01	; 1
     552:	09 f4       	brne	.+2      	; 0x556 <checkPlayer1Win+0x34>
			checks[c] = 1;
     554:	9c 93       	st	X, r25
     556:	33 96       	adiw	r30, 0x03	; 3
     558:	11 96       	adiw	r26, 0x01	; 1

/* Returns 1 if player1 Won.*/
uint8_t checkPlayer1Win(void)
{
	uint8_t checks[7] = {0, 0, 0, 0, 0, 0, 0};
	for (uint8_t c=0; c<=2; c++)
     55a:	e2 17       	cp	r30, r18
     55c:	f3 07       	cpc	r31, r19
     55e:	b9 f7       	brne	.-18     	; 0x54e <checkPlayer1Win+0x2c>
		if (submarinosJugador2[c].boolDisparado == 1)
			checks[c] = 1;
	}
	for (uint8_t c=0; c<=1; c++)
	{
		if (carguerosJugador2[c].boolDisparado0 == 1)
     560:	80 91 07 01 	lds	r24, 0x0107	; 0x800107 <carguerosJugador2+0x2>
     564:	81 30       	cpi	r24, 0x01	; 1
     566:	09 f4       	brne	.+2      	; 0x56a <checkPlayer1Win+0x48>
		{
			checks[c+3] = 1;
     568:	8c 83       	std	Y+4, r24	; 0x04
		}
		if (carguerosJugador2[c].boolDisparado1 == 1)
     56a:	80 91 0a 01 	lds	r24, 0x010A	; 0x80010a <carguerosJugador2+0x5>
     56e:	81 30       	cpi	r24, 0x01	; 1
     570:	09 f4       	brne	.+2      	; 0x574 <checkPlayer1Win+0x52>
		{
			checks[c+5] = 1;
     572:	8e 83       	std	Y+6, r24	; 0x06
		if (submarinosJugador2[c].boolDisparado == 1)
			checks[c] = 1;
	}
	for (uint8_t c=0; c<=1; c++)
	{
		if (carguerosJugador2[c].boolDisparado0 == 1)
     574:	80 91 0d 01 	lds	r24, 0x010D	; 0x80010d <carguerosJugador2+0x8>
     578:	81 30       	cpi	r24, 0x01	; 1
     57a:	09 f4       	brne	.+2      	; 0x57e <checkPlayer1Win+0x5c>
		{
			checks[c+3] = 1;
     57c:	8d 83       	std	Y+5, r24	; 0x05
		}
		if (carguerosJugador2[c].boolDisparado1 == 1)
     57e:	80 91 10 01 	lds	r24, 0x0110	; 0x800110 <carguerosJugador2+0xb>
     582:	81 30       	cpi	r24, 0x01	; 1
     584:	09 f4       	brne	.+2      	; 0x588 <checkPlayer1Win+0x66>
		{
			checks[c+5] = 1;
     586:	8f 83       	std	Y+7, r24	; 0x07
		}
	}
	
	if ((checks[0] == 1) & (checks[1] == 1) & (checks[2] == 1) & (checks[3] == 1) & (checks[4] == 1) & (checks[5] == 1) & (checks[6] == 1))
	{
		return 1;
     588:	31 e0       	ldi	r19, 0x01	; 1
     58a:	89 81       	ldd	r24, Y+1	; 0x01
     58c:	81 30       	cpi	r24, 0x01	; 1
     58e:	09 f0       	breq	.+2      	; 0x592 <checkPlayer1Win+0x70>
     590:	30 e0       	ldi	r19, 0x00	; 0
     592:	81 e0       	ldi	r24, 0x01	; 1
     594:	9a 81       	ldd	r25, Y+2	; 0x02
     596:	91 30       	cpi	r25, 0x01	; 1
     598:	09 f0       	breq	.+2      	; 0x59c <checkPlayer1Win+0x7a>
     59a:	80 e0       	ldi	r24, 0x00	; 0
     59c:	83 23       	and	r24, r19
     59e:	31 e0       	ldi	r19, 0x01	; 1
     5a0:	9b 81       	ldd	r25, Y+3	; 0x03
     5a2:	91 30       	cpi	r25, 0x01	; 1
     5a4:	09 f0       	breq	.+2      	; 0x5a8 <checkPlayer1Win+0x86>
     5a6:	30 e0       	ldi	r19, 0x00	; 0
     5a8:	83 23       	and	r24, r19
     5aa:	21 e0       	ldi	r18, 0x01	; 1
     5ac:	9c 81       	ldd	r25, Y+4	; 0x04
     5ae:	91 30       	cpi	r25, 0x01	; 1
     5b0:	09 f0       	breq	.+2      	; 0x5b4 <checkPlayer1Win+0x92>
     5b2:	20 e0       	ldi	r18, 0x00	; 0
     5b4:	98 2f       	mov	r25, r24
     5b6:	92 23       	and	r25, r18
     5b8:	81 e0       	ldi	r24, 0x01	; 1
     5ba:	2d 81       	ldd	r18, Y+5	; 0x05
     5bc:	21 30       	cpi	r18, 0x01	; 1
     5be:	09 f0       	breq	.+2      	; 0x5c2 <checkPlayer1Win+0xa0>
     5c0:	80 e0       	ldi	r24, 0x00	; 0
     5c2:	89 23       	and	r24, r25
     5c4:	91 e0       	ldi	r25, 0x01	; 1
     5c6:	2e 81       	ldd	r18, Y+6	; 0x06
     5c8:	21 30       	cpi	r18, 0x01	; 1
     5ca:	09 f0       	breq	.+2      	; 0x5ce <checkPlayer1Win+0xac>
     5cc:	90 e0       	ldi	r25, 0x00	; 0
     5ce:	98 23       	and	r25, r24
     5d0:	81 e0       	ldi	r24, 0x01	; 1
     5d2:	2f 81       	ldd	r18, Y+7	; 0x07
     5d4:	21 30       	cpi	r18, 0x01	; 1
     5d6:	09 f0       	breq	.+2      	; 0x5da <checkPlayer1Win+0xb8>
     5d8:	80 e0       	ldi	r24, 0x00	; 0
	}
	else
	{
		return 0;
	}
}
     5da:	89 23       	and	r24, r25
     5dc:	27 96       	adiw	r28, 0x07	; 7
     5de:	0f b6       	in	r0, 0x3f	; 63
     5e0:	f8 94       	cli
     5e2:	de bf       	out	0x3e, r29	; 62
     5e4:	0f be       	out	0x3f, r0	; 63
     5e6:	cd bf       	out	0x3d, r28	; 61
     5e8:	df 91       	pop	r29
     5ea:	cf 91       	pop	r28
     5ec:	08 95       	ret

000005ee <checkPlayer2Win>:

/* Returns 1 if player2 Won.*/
uint8_t checkPlayer2Win(void)
{
     5ee:	cf 93       	push	r28
     5f0:	df 93       	push	r29
     5f2:	cd b7       	in	r28, 0x3d	; 61
     5f4:	de b7       	in	r29, 0x3e	; 62
     5f6:	27 97       	sbiw	r28, 0x07	; 7
     5f8:	0f b6       	in	r0, 0x3f	; 63
     5fa:	f8 94       	cli
     5fc:	de bf       	out	0x3e, r29	; 62
     5fe:	0f be       	out	0x3f, r0	; 63
     600:	cd bf       	out	0x3d, r28	; 61
	uint8_t checks[7] = {0, 0, 0, 0, 0, 0, 0};
     602:	de 01       	movw	r26, r28
     604:	11 96       	adiw	r26, 0x01	; 1
     606:	87 e0       	ldi	r24, 0x07	; 7
     608:	fd 01       	movw	r30, r26
     60a:	11 92       	st	Z+, r1
     60c:	8a 95       	dec	r24
     60e:	e9 f7       	brne	.-6      	; 0x60a <checkPlayer2Win+0x1c>
     610:	e6 e2       	ldi	r30, 0x26	; 38
     612:	f1 e0       	ldi	r31, 0x01	; 1
     614:	2f e2       	ldi	r18, 0x2F	; 47
     616:	31 e0       	ldi	r19, 0x01	; 1
	for (uint8_t c=0; c<=2; c++)
	{
		if (submarinosJugador1[c].boolDisparado == 1)
			checks[c] = 1;
     618:	91 e0       	ldi	r25, 0x01	; 1
uint8_t checkPlayer2Win(void)
{
	uint8_t checks[7] = {0, 0, 0, 0, 0, 0, 0};
	for (uint8_t c=0; c<=2; c++)
	{
		if (submarinosJugador1[c].boolDisparado == 1)
     61a:	82 81       	ldd	r24, Z+2	; 0x02
     61c:	81 30       	cpi	r24, 0x01	; 1
     61e:	09 f4       	brne	.+2      	; 0x622 <checkPlayer2Win+0x34>
			checks[c] = 1;
     620:	9c 93       	st	X, r25
     622:	33 96       	adiw	r30, 0x03	; 3
     624:	11 96       	adiw	r26, 0x01	; 1

/* Returns 1 if player2 Won.*/
uint8_t checkPlayer2Win(void)
{
	uint8_t checks[7] = {0, 0, 0, 0, 0, 0, 0};
	for (uint8_t c=0; c<=2; c++)
     626:	e2 17       	cp	r30, r18
     628:	f3 07       	cpc	r31, r19
     62a:	b9 f7       	brne	.-18     	; 0x61a <checkPlayer2Win+0x2c>
		if (submarinosJugador1[c].boolDisparado == 1)
			checks[c] = 1;
	}
	for (uint8_t c=0; c<=1; c++)
	{
		if (carguerosJugador1[c].boolDisparado0 == 1)
     62c:	80 91 1c 01 	lds	r24, 0x011C	; 0x80011c <carguerosJugador1+0x2>
     630:	81 30       	cpi	r24, 0x01	; 1
     632:	09 f4       	brne	.+2      	; 0x636 <checkPlayer2Win+0x48>
		{
			checks[c+3] = 1;
     634:	8c 83       	std	Y+4, r24	; 0x04
		}
		if (carguerosJugador1[c].boolDisparado1 == 1)
     636:	80 91 1f 01 	lds	r24, 0x011F	; 0x80011f <carguerosJugador1+0x5>
     63a:	81 30       	cpi	r24, 0x01	; 1
     63c:	09 f4       	brne	.+2      	; 0x640 <checkPlayer2Win+0x52>
		{
			checks[c+5] = 1;
     63e:	8e 83       	std	Y+6, r24	; 0x06
		if (submarinosJugador1[c].boolDisparado == 1)
			checks[c] = 1;
	}
	for (uint8_t c=0; c<=1; c++)
	{
		if (carguerosJugador1[c].boolDisparado0 == 1)
     640:	80 91 22 01 	lds	r24, 0x0122	; 0x800122 <carguerosJugador1+0x8>
     644:	81 30       	cpi	r24, 0x01	; 1
     646:	09 f4       	brne	.+2      	; 0x64a <checkPlayer2Win+0x5c>
		{
			checks[c+3] = 1;
     648:	8d 83       	std	Y+5, r24	; 0x05
		}
		if (carguerosJugador1[c].boolDisparado1 == 1)
     64a:	80 91 25 01 	lds	r24, 0x0125	; 0x800125 <carguerosJugador1+0xb>
     64e:	81 30       	cpi	r24, 0x01	; 1
     650:	09 f4       	brne	.+2      	; 0x654 <checkPlayer2Win+0x66>
		{
			checks[c+5] = 1;
     652:	8f 83       	std	Y+7, r24	; 0x07
		}
	}
	
	if ((checks[0] == 1) & (checks[1] == 1) & (checks[2] == 1) & (checks[3] == 1) & (checks[4] == 1) & (checks[5] == 1) & (checks[6] == 1))
	{
		return 1;
     654:	31 e0       	ldi	r19, 0x01	; 1
     656:	89 81       	ldd	r24, Y+1	; 0x01
     658:	81 30       	cpi	r24, 0x01	; 1
     65a:	09 f0       	breq	.+2      	; 0x65e <checkPlayer2Win+0x70>
     65c:	30 e0       	ldi	r19, 0x00	; 0
     65e:	81 e0       	ldi	r24, 0x01	; 1
     660:	9a 81       	ldd	r25, Y+2	; 0x02
     662:	91 30       	cpi	r25, 0x01	; 1
     664:	09 f0       	breq	.+2      	; 0x668 <checkPlayer2Win+0x7a>
     666:	80 e0       	ldi	r24, 0x00	; 0
     668:	83 23       	and	r24, r19
     66a:	31 e0       	ldi	r19, 0x01	; 1
     66c:	9b 81       	ldd	r25, Y+3	; 0x03
     66e:	91 30       	cpi	r25, 0x01	; 1
     670:	09 f0       	breq	.+2      	; 0x674 <checkPlayer2Win+0x86>
     672:	30 e0       	ldi	r19, 0x00	; 0
     674:	83 23       	and	r24, r19
     676:	21 e0       	ldi	r18, 0x01	; 1
     678:	9c 81       	ldd	r25, Y+4	; 0x04
     67a:	91 30       	cpi	r25, 0x01	; 1
     67c:	09 f0       	breq	.+2      	; 0x680 <checkPlayer2Win+0x92>
     67e:	20 e0       	ldi	r18, 0x00	; 0
     680:	98 2f       	mov	r25, r24
     682:	92 23       	and	r25, r18
     684:	81 e0       	ldi	r24, 0x01	; 1
     686:	2d 81       	ldd	r18, Y+5	; 0x05
     688:	21 30       	cpi	r18, 0x01	; 1
     68a:	09 f0       	breq	.+2      	; 0x68e <checkPlayer2Win+0xa0>
     68c:	80 e0       	ldi	r24, 0x00	; 0
     68e:	89 23       	and	r24, r25
     690:	91 e0       	ldi	r25, 0x01	; 1
     692:	2e 81       	ldd	r18, Y+6	; 0x06
     694:	21 30       	cpi	r18, 0x01	; 1
     696:	09 f0       	breq	.+2      	; 0x69a <checkPlayer2Win+0xac>
     698:	90 e0       	ldi	r25, 0x00	; 0
     69a:	98 23       	and	r25, r24
     69c:	81 e0       	ldi	r24, 0x01	; 1
     69e:	2f 81       	ldd	r18, Y+7	; 0x07
     6a0:	21 30       	cpi	r18, 0x01	; 1
     6a2:	09 f0       	breq	.+2      	; 0x6a6 <checkPlayer2Win+0xb8>
     6a4:	80 e0       	ldi	r24, 0x00	; 0
	}
	else
	{
		return 0;
	}
}
     6a6:	89 23       	and	r24, r25
     6a8:	27 96       	adiw	r28, 0x07	; 7
     6aa:	0f b6       	in	r0, 0x3f	; 63
     6ac:	f8 94       	cli
     6ae:	de bf       	out	0x3e, r29	; 62
     6b0:	0f be       	out	0x3f, r0	; 63
     6b2:	cd bf       	out	0x3d, r28	; 61
     6b4:	df 91       	pop	r29
     6b6:	cf 91       	pop	r28
     6b8:	08 95       	ret

000006ba <delaySeconds>:

/* Blocking delay in seconds.*/ 
void delaySeconds(uint8_t seconds)
{
	for(int8_t i=1; i<=seconds; i++)
     6ba:	48 2f       	mov	r20, r24
     6bc:	50 e0       	ldi	r21, 0x00	; 0
     6be:	14 16       	cp	r1, r20
     6c0:	15 06       	cpc	r1, r21
     6c2:	6c f5       	brge	.+90     	; 0x71e <delaySeconds+0x64>
     6c4:	91 e0       	ldi	r25, 0x01	; 1
	#else
		//round up by default
		__ticks_dc = (uint32_t)(ceil(fabs(__tmp)));
	#endif

	__builtin_avr_delay_cycles(__ticks_dc);
     6c6:	2f ef       	ldi	r18, 0xFF	; 255
     6c8:	34 e3       	ldi	r19, 0x34	; 52
     6ca:	8c e0       	ldi	r24, 0x0C	; 12
     6cc:	21 50       	subi	r18, 0x01	; 1
     6ce:	30 40       	sbci	r19, 0x00	; 0
     6d0:	80 40       	sbci	r24, 0x00	; 0
     6d2:	e1 f7       	brne	.-8      	; 0x6cc <delaySeconds+0x12>
     6d4:	00 c0       	rjmp	.+0      	; 0x6d6 <delaySeconds+0x1c>
     6d6:	00 00       	nop
     6d8:	2f ef       	ldi	r18, 0xFF	; 255
     6da:	34 e3       	ldi	r19, 0x34	; 52
     6dc:	8c e0       	ldi	r24, 0x0C	; 12
     6de:	21 50       	subi	r18, 0x01	; 1
     6e0:	30 40       	sbci	r19, 0x00	; 0
     6e2:	80 40       	sbci	r24, 0x00	; 0
     6e4:	e1 f7       	brne	.-8      	; 0x6de <delaySeconds+0x24>
     6e6:	00 c0       	rjmp	.+0      	; 0x6e8 <delaySeconds+0x2e>
     6e8:	00 00       	nop
     6ea:	2f ef       	ldi	r18, 0xFF	; 255
     6ec:	34 e3       	ldi	r19, 0x34	; 52
     6ee:	8c e0       	ldi	r24, 0x0C	; 12
     6f0:	21 50       	subi	r18, 0x01	; 1
     6f2:	30 40       	sbci	r19, 0x00	; 0
     6f4:	80 40       	sbci	r24, 0x00	; 0
     6f6:	e1 f7       	brne	.-8      	; 0x6f0 <delaySeconds+0x36>
     6f8:	00 c0       	rjmp	.+0      	; 0x6fa <delaySeconds+0x40>
     6fa:	00 00       	nop
     6fc:	2f ef       	ldi	r18, 0xFF	; 255
     6fe:	34 e3       	ldi	r19, 0x34	; 52
     700:	8c e0       	ldi	r24, 0x0C	; 12
     702:	21 50       	subi	r18, 0x01	; 1
     704:	30 40       	sbci	r19, 0x00	; 0
     706:	80 40       	sbci	r24, 0x00	; 0
     708:	e1 f7       	brne	.-8      	; 0x702 <delaySeconds+0x48>
     70a:	00 c0       	rjmp	.+0      	; 0x70c <delaySeconds+0x52>
     70c:	00 00       	nop
     70e:	9f 5f       	subi	r25, 0xFF	; 255
     710:	29 2f       	mov	r18, r25
     712:	09 2e       	mov	r0, r25
     714:	00 0c       	add	r0, r0
     716:	33 0b       	sbc	r19, r19
     718:	42 17       	cp	r20, r18
     71a:	53 07       	cpc	r21, r19
     71c:	a4 f6       	brge	.-88     	; 0x6c6 <delaySeconds+0xc>
     71e:	08 95       	ret

00000720 <copyArrayOf1>:
	}
}

/* Copies matrizJugador1 in display_rgb.*/
void copyArrayOf1(void)
{
     720:	cf 93       	push	r28
     722:	df 93       	push	r29
     724:	e7 e2       	ldi	r30, 0x27	; 39
     726:	f2 e0       	ldi	r31, 0x02	; 2
     728:	65 e6       	ldi	r22, 0x65	; 101
     72a:	71 e0       	ldi	r23, 0x01	; 1
     72c:	c7 ee       	ldi	r28, 0xE7	; 231
     72e:	d2 e0       	ldi	r29, 0x02	; 2
     730:	0f c0       	rjmp	.+30     	; 0x750 <copyArrayOf1+0x30>
	for (int i=0; i<=7; i++)
		for (int j=0; j<=7; j++)
			display_rgb[i][j] = matrizJugador1[i][j];
     732:	21 91       	ld	r18, Z+
     734:	31 91       	ld	r19, Z+
     736:	41 91       	ld	r20, Z+
     738:	2d 93       	st	X+, r18
     73a:	3d 93       	st	X+, r19
     73c:	4d 93       	st	X+, r20

/* Copies matrizJugador1 in display_rgb.*/
void copyArrayOf1(void)
{
	for (int i=0; i<=7; i++)
		for (int j=0; j<=7; j++)
     73e:	e8 17       	cp	r30, r24
     740:	f9 07       	cpc	r31, r25
     742:	b9 f7       	brne	.-18     	; 0x732 <copyArrayOf1+0x12>
     744:	68 5e       	subi	r22, 0xE8	; 232
     746:	7f 4f       	sbci	r23, 0xFF	; 255
     748:	fc 01       	movw	r30, r24
}

/* Copies matrizJugador1 in display_rgb.*/
void copyArrayOf1(void)
{
	for (int i=0; i<=7; i++)
     74a:	c8 17       	cp	r28, r24
     74c:	d9 07       	cpc	r29, r25
     74e:	21 f0       	breq	.+8      	; 0x758 <copyArrayOf1+0x38>
     750:	cf 01       	movw	r24, r30
     752:	48 96       	adiw	r24, 0x18	; 24
	}
}

/* Copies matrizJugador1 in display_rgb.*/
void copyArrayOf1(void)
{
     754:	db 01       	movw	r26, r22
     756:	ed cf       	rjmp	.-38     	; 0x732 <copyArrayOf1+0x12>
	for (int i=0; i<=7; i++)
		for (int j=0; j<=7; j++)
			display_rgb[i][j] = matrizJugador1[i][j];
}
     758:	df 91       	pop	r29
     75a:	cf 91       	pop	r28
     75c:	08 95       	ret

0000075e <copyArrayOf2>:

/* Copies matrizJugador2 in display_rgb.*/
void copyArrayOf2(void)
{
     75e:	cf 93       	push	r28
     760:	df 93       	push	r29
     762:	e7 ee       	ldi	r30, 0xE7	; 231
     764:	f2 e0       	ldi	r31, 0x02	; 2
     766:	65 e6       	ldi	r22, 0x65	; 101
     768:	71 e0       	ldi	r23, 0x01	; 1
     76a:	c7 ea       	ldi	r28, 0xA7	; 167
     76c:	d3 e0       	ldi	r29, 0x03	; 3
     76e:	0f c0       	rjmp	.+30     	; 0x78e <copyArrayOf2+0x30>
	for (int i=0; i<=7; i++)
		for (int j=0; j<=7; j++)
			display_rgb[i][j] = matrizJugador2[i][j];
     770:	21 91       	ld	r18, Z+
     772:	31 91       	ld	r19, Z+
     774:	41 91       	ld	r20, Z+
     776:	2d 93       	st	X+, r18
     778:	3d 93       	st	X+, r19
     77a:	4d 93       	st	X+, r20

/* Copies matrizJugador2 in display_rgb.*/
void copyArrayOf2(void)
{
	for (int i=0; i<=7; i++)
		for (int j=0; j<=7; j++)
     77c:	e8 17       	cp	r30, r24
     77e:	f9 07       	cpc	r31, r25
     780:	b9 f7       	brne	.-18     	; 0x770 <copyArrayOf2+0x12>
     782:	68 5e       	subi	r22, 0xE8	; 232
     784:	7f 4f       	sbci	r23, 0xFF	; 255
     786:	fc 01       	movw	r30, r24
}

/* Copies matrizJugador2 in display_rgb.*/
void copyArrayOf2(void)
{
	for (int i=0; i<=7; i++)
     788:	c8 17       	cp	r28, r24
     78a:	d9 07       	cpc	r29, r25
     78c:	21 f0       	breq	.+8      	; 0x796 <copyArrayOf2+0x38>
     78e:	cf 01       	movw	r24, r30
     790:	48 96       	adiw	r24, 0x18	; 24
			display_rgb[i][j] = matrizJugador1[i][j];
}

/* Copies matrizJugador2 in display_rgb.*/
void copyArrayOf2(void)
{
     792:	db 01       	movw	r26, r22
     794:	ed cf       	rjmp	.-38     	; 0x770 <copyArrayOf2+0x12>
	for (int i=0; i<=7; i++)
		for (int j=0; j<=7; j++)
			display_rgb[i][j] = matrizJugador2[i][j];
}
     796:	df 91       	pop	r29
     798:	cf 91       	pop	r28
     79a:	08 95       	ret

0000079c <scanSubmarinos1>:
}

/* Takes coordinates x, y from 0:7 as arguments and scans Submarinos of player1.
Sets MatrizJugador1 corresponding to the existance of a ship on the coordinates.*/
void scanSubmarinos1(int8_t x, int8_t y)
{
     79c:	af 92       	push	r10
     79e:	bf 92       	push	r11
     7a0:	cf 92       	push	r12
     7a2:	df 92       	push	r13
     7a4:	ef 92       	push	r14
     7a6:	ff 92       	push	r15
     7a8:	0f 93       	push	r16
     7aa:	1f 93       	push	r17
     7ac:	cf 93       	push	r28
     7ae:	df 93       	push	r29
     7b0:	e6 e2       	ldi	r30, 0x26	; 38
     7b2:	f1 e0       	ldi	r31, 0x01	; 1
     7b4:	cf e2       	ldi	r28, 0x2F	; 47
     7b6:	d1 e0       	ldi	r29, 0x01	; 1
	for(int i=0; i<=2; i++)
	{
		if ((submarinosJugador1[i].x0 == x) & (submarinosJugador1[i].y0 == y))
     7b8:	48 2f       	mov	r20, r24
     7ba:	88 0f       	add	r24, r24
     7bc:	55 0b       	sbc	r21, r21
     7be:	06 2e       	mov	r0, r22
     7c0:	00 0c       	add	r0, r0
     7c2:	77 0b       	sbc	r23, r23
     7c4:	81 e0       	ldi	r24, 0x01	; 1
     7c6:	f1 2c       	mov	r15, r1
		{
			submarinosJugador1[i].boolDisparado = 1;
			matrizJugador1[x][y] = Hundido;
     7c8:	db 01       	movw	r26, r22
     7ca:	aa 0f       	add	r26, r26
     7cc:	bb 1f       	adc	r27, r27
     7ce:	9d 01       	movw	r18, r26
     7d0:	26 0f       	add	r18, r22
     7d2:	37 1f       	adc	r19, r23
     7d4:	da 01       	movw	r26, r20
     7d6:	aa 0f       	add	r26, r26
     7d8:	bb 1f       	adc	r27, r27
     7da:	a4 0f       	add	r26, r20
     7dc:	b5 1f       	adc	r27, r21
     7de:	aa 0f       	add	r26, r26
     7e0:	bb 1f       	adc	r27, r27
     7e2:	aa 0f       	add	r26, r26
     7e4:	bb 1f       	adc	r27, r27
     7e6:	aa 0f       	add	r26, r26
     7e8:	bb 1f       	adc	r27, r27
     7ea:	a2 0f       	add	r26, r18
     7ec:	b3 1f       	adc	r27, r19
     7ee:	9d 01       	movw	r18, r26
     7f0:	29 5d       	subi	r18, 0xD9	; 217
     7f2:	3d 4f       	sbci	r19, 0xFD	; 253
     7f4:	59 01       	movw	r10, r18
     7f6:	8f 01       	movw	r16, r30
Sets MatrizJugador1 corresponding to the existance of a ship on the coordinates.*/
void scanSubmarinos1(int8_t x, int8_t y)
{
	for(int i=0; i<=2; i++)
	{
		if ((submarinosJugador1[i].x0 == x) & (submarinosJugador1[i].y0 == y))
     7f8:	20 81       	ld	r18, Z
     7fa:	30 e0       	ldi	r19, 0x00	; 0
     7fc:	98 2f       	mov	r25, r24
     7fe:	24 17       	cp	r18, r20
     800:	35 07       	cpc	r19, r21
     802:	09 f0       	breq	.+2      	; 0x806 <__DATA_REGION_LENGTH__+0x6>
     804:	9f 2d       	mov	r25, r15
     806:	99 23       	and	r25, r25
     808:	c1 f0       	breq	.+48     	; 0x83a <__DATA_REGION_LENGTH__+0x3a>
     80a:	d8 01       	movw	r26, r16
     80c:	11 96       	adiw	r26, 0x01	; 1
     80e:	2c 91       	ld	r18, X
     810:	30 e0       	ldi	r19, 0x00	; 0
     812:	98 2f       	mov	r25, r24
     814:	26 17       	cp	r18, r22
     816:	37 07       	cpc	r19, r23
     818:	09 f0       	breq	.+2      	; 0x81c <__DATA_REGION_LENGTH__+0x1c>
     81a:	9f 2d       	mov	r25, r15
     81c:	99 23       	and	r25, r25
     81e:	69 f0       	breq	.+26     	; 0x83a <__DATA_REGION_LENGTH__+0x3a>
		{
			submarinosJugador1[i].boolDisparado = 1;
     820:	d8 01       	movw	r26, r16
     822:	12 96       	adiw	r26, 0x02	; 2
     824:	8c 93       	st	X, r24
			matrizJugador1[x][y] = Hundido;
     826:	c0 90 35 01 	lds	r12, 0x0135	; 0x800135 <Hundido>
     82a:	d0 90 36 01 	lds	r13, 0x0136	; 0x800136 <Hundido+0x1>
     82e:	e0 90 37 01 	lds	r14, 0x0137	; 0x800137 <Hundido+0x2>
     832:	d5 01       	movw	r26, r10
     834:	cd 92       	st	X+, r12
     836:	dd 92       	st	X+, r13
     838:	ec 92       	st	X, r14
     83a:	33 96       	adiw	r30, 0x03	; 3

/* Takes coordinates x, y from 0:7 as arguments and scans Submarinos of player1.
Sets MatrizJugador1 corresponding to the existance of a ship on the coordinates.*/
void scanSubmarinos1(int8_t x, int8_t y)
{
	for(int i=0; i<=2; i++)
     83c:	ec 17       	cp	r30, r28
     83e:	fd 07       	cpc	r31, r29
     840:	d1 f6       	brne	.-76     	; 0x7f6 <scanSubmarinos1+0x5a>
		{
			submarinosJugador1[i].boolDisparado = 1;
			matrizJugador1[x][y] = Hundido;
		}
	}
}
     842:	df 91       	pop	r29
     844:	cf 91       	pop	r28
     846:	1f 91       	pop	r17
     848:	0f 91       	pop	r16
     84a:	ff 90       	pop	r15
     84c:	ef 90       	pop	r14
     84e:	df 90       	pop	r13
     850:	cf 90       	pop	r12
     852:	bf 90       	pop	r11
     854:	af 90       	pop	r10
     856:	08 95       	ret

00000858 <scanSubmarinos2>:

/* Takes coordinates x, y from 0:7 as arguments and scans Submarinos of player2.
Sets MatrizJugador2 corresponding to the existance of a ship on the coordinates.*/
void scanSubmarinos2(int8_t x, int8_t y)
{
     858:	af 92       	push	r10
     85a:	bf 92       	push	r11
     85c:	cf 92       	push	r12
     85e:	df 92       	push	r13
     860:	ef 92       	push	r14
     862:	ff 92       	push	r15
     864:	0f 93       	push	r16
     866:	1f 93       	push	r17
     868:	cf 93       	push	r28
     86a:	df 93       	push	r29
     86c:	e1 e1       	ldi	r30, 0x11	; 17
     86e:	f1 e0       	ldi	r31, 0x01	; 1
     870:	ca e1       	ldi	r28, 0x1A	; 26
     872:	d1 e0       	ldi	r29, 0x01	; 1
	for(int i=0; i<=2; i++)
	{
		if ((submarinosJugador2[i].x0 == x) & (submarinosJugador2[i].y0 == y))
     874:	48 2f       	mov	r20, r24
     876:	88 0f       	add	r24, r24
     878:	55 0b       	sbc	r21, r21
     87a:	06 2e       	mov	r0, r22
     87c:	00 0c       	add	r0, r0
     87e:	77 0b       	sbc	r23, r23
     880:	81 e0       	ldi	r24, 0x01	; 1
     882:	f1 2c       	mov	r15, r1
		{
			submarinosJugador2[i].boolDisparado = 1;
			matrizJugador2[x][y] = Hundido;
     884:	db 01       	movw	r26, r22
     886:	aa 0f       	add	r26, r26
     888:	bb 1f       	adc	r27, r27
     88a:	9d 01       	movw	r18, r26
     88c:	26 0f       	add	r18, r22
     88e:	37 1f       	adc	r19, r23
     890:	da 01       	movw	r26, r20
     892:	aa 0f       	add	r26, r26
     894:	bb 1f       	adc	r27, r27
     896:	a4 0f       	add	r26, r20
     898:	b5 1f       	adc	r27, r21
     89a:	aa 0f       	add	r26, r26
     89c:	bb 1f       	adc	r27, r27
     89e:	aa 0f       	add	r26, r26
     8a0:	bb 1f       	adc	r27, r27
     8a2:	aa 0f       	add	r26, r26
     8a4:	bb 1f       	adc	r27, r27
     8a6:	a2 0f       	add	r26, r18
     8a8:	b3 1f       	adc	r27, r19
     8aa:	9d 01       	movw	r18, r26
     8ac:	29 51       	subi	r18, 0x19	; 25
     8ae:	3d 4f       	sbci	r19, 0xFD	; 253
     8b0:	59 01       	movw	r10, r18
     8b2:	8f 01       	movw	r16, r30
Sets MatrizJugador2 corresponding to the existance of a ship on the coordinates.*/
void scanSubmarinos2(int8_t x, int8_t y)
{
	for(int i=0; i<=2; i++)
	{
		if ((submarinosJugador2[i].x0 == x) & (submarinosJugador2[i].y0 == y))
     8b4:	20 81       	ld	r18, Z
     8b6:	30 e0       	ldi	r19, 0x00	; 0
     8b8:	98 2f       	mov	r25, r24
     8ba:	24 17       	cp	r18, r20
     8bc:	35 07       	cpc	r19, r21
     8be:	09 f0       	breq	.+2      	; 0x8c2 <scanSubmarinos2+0x6a>
     8c0:	9f 2d       	mov	r25, r15
     8c2:	99 23       	and	r25, r25
     8c4:	c1 f0       	breq	.+48     	; 0x8f6 <scanSubmarinos2+0x9e>
     8c6:	d8 01       	movw	r26, r16
     8c8:	11 96       	adiw	r26, 0x01	; 1
     8ca:	2c 91       	ld	r18, X
     8cc:	30 e0       	ldi	r19, 0x00	; 0
     8ce:	98 2f       	mov	r25, r24
     8d0:	26 17       	cp	r18, r22
     8d2:	37 07       	cpc	r19, r23
     8d4:	09 f0       	breq	.+2      	; 0x8d8 <scanSubmarinos2+0x80>
     8d6:	9f 2d       	mov	r25, r15
     8d8:	99 23       	and	r25, r25
     8da:	69 f0       	breq	.+26     	; 0x8f6 <scanSubmarinos2+0x9e>
		{
			submarinosJugador2[i].boolDisparado = 1;
     8dc:	d8 01       	movw	r26, r16
     8de:	12 96       	adiw	r26, 0x02	; 2
     8e0:	8c 93       	st	X, r24
			matrizJugador2[x][y] = Hundido;
     8e2:	c0 90 35 01 	lds	r12, 0x0135	; 0x800135 <Hundido>
     8e6:	d0 90 36 01 	lds	r13, 0x0136	; 0x800136 <Hundido+0x1>
     8ea:	e0 90 37 01 	lds	r14, 0x0137	; 0x800137 <Hundido+0x2>
     8ee:	d5 01       	movw	r26, r10
     8f0:	cd 92       	st	X+, r12
     8f2:	dd 92       	st	X+, r13
     8f4:	ec 92       	st	X, r14
     8f6:	33 96       	adiw	r30, 0x03	; 3

/* Takes coordinates x, y from 0:7 as arguments and scans Submarinos of player2.
Sets MatrizJugador2 corresponding to the existance of a ship on the coordinates.*/
void scanSubmarinos2(int8_t x, int8_t y)
{
	for(int i=0; i<=2; i++)
     8f8:	ec 17       	cp	r30, r28
     8fa:	fd 07       	cpc	r31, r29
     8fc:	d1 f6       	brne	.-76     	; 0x8b2 <scanSubmarinos2+0x5a>
		{
			submarinosJugador2[i].boolDisparado = 1;
			matrizJugador2[x][y] = Hundido;
		}
	}
}
     8fe:	df 91       	pop	r29
     900:	cf 91       	pop	r28
     902:	1f 91       	pop	r17
     904:	0f 91       	pop	r16
     906:	ff 90       	pop	r15
     908:	ef 90       	pop	r14
     90a:	df 90       	pop	r13
     90c:	cf 90       	pop	r12
     90e:	bf 90       	pop	r11
     910:	af 90       	pop	r10
     912:	08 95       	ret

00000914 <scanCargueros1>:

/* Takes coordinates x, y from 0:7 as arguments and scans Cargueros of player1.
Sets MatrizJugador1 corresponding to the existance of a ship on the coordinates.*/
void scanCargueros1(int8_t x, int8_t y)
{
     914:	4f 92       	push	r4
     916:	5f 92       	push	r5
     918:	6f 92       	push	r6
     91a:	7f 92       	push	r7
     91c:	8f 92       	push	r8
     91e:	af 92       	push	r10
     920:	bf 92       	push	r11
     922:	cf 92       	push	r12
     924:	df 92       	push	r13
     926:	ef 92       	push	r14
     928:	ff 92       	push	r15
     92a:	0f 93       	push	r16
     92c:	1f 93       	push	r17
     92e:	cf 93       	push	r28
     930:	df 93       	push	r29
     932:	ea e1       	ldi	r30, 0x1A	; 26
     934:	f1 e0       	ldi	r31, 0x01	; 1
     936:	0f 2e       	mov	r0, r31
     938:	f6 e2       	ldi	r31, 0x26	; 38
     93a:	ef 2e       	mov	r14, r31
     93c:	f1 e0       	ldi	r31, 0x01	; 1
     93e:	ff 2e       	mov	r15, r31
     940:	f0 2d       	mov	r31, r0
	for(int i=0; i<=1; i++)
	{
		if ((carguerosJugador1[i].x0 == x) & (carguerosJugador1[i].y0 == y))
     942:	08 2e       	mov	r0, r24
     944:	00 0c       	add	r0, r0
     946:	99 0b       	sbc	r25, r25
     948:	06 2e       	mov	r0, r22
     94a:	00 0c       	add	r0, r0
     94c:	77 0b       	sbc	r23, r23
     94e:	bb 24       	eor	r11, r11
     950:	b3 94       	inc	r11
     952:	a1 2c       	mov	r10, r1
			{
				matrizJugador1[carguerosJugador1[i].x0][carguerosJugador1[i].y0] = Hundido;
				matrizJugador1[carguerosJugador1[i].x1][carguerosJugador1[i].y1] = Hundido;
			}
			else
				matrizJugador1[x][y] = Danado;
     954:	9b 01       	movw	r18, r22
     956:	22 0f       	add	r18, r18
     958:	33 1f       	adc	r19, r19
     95a:	a9 01       	movw	r20, r18
     95c:	46 0f       	add	r20, r22
     95e:	57 1f       	adc	r21, r23
     960:	9c 01       	movw	r18, r24
     962:	22 0f       	add	r18, r18
     964:	33 1f       	adc	r19, r19
     966:	28 0f       	add	r18, r24
     968:	39 1f       	adc	r19, r25
     96a:	22 0f       	add	r18, r18
     96c:	33 1f       	adc	r19, r19
     96e:	22 0f       	add	r18, r18
     970:	33 1f       	adc	r19, r19
     972:	22 0f       	add	r18, r18
     974:	33 1f       	adc	r19, r19
     976:	24 0f       	add	r18, r20
     978:	35 1f       	adc	r19, r21
     97a:	a9 01       	movw	r20, r18
     97c:	49 5d       	subi	r20, 0xD9	; 217
     97e:	5d 4f       	sbci	r21, 0xFD	; 253
     980:	2a 01       	movw	r4, r20
     982:	ef 01       	movw	r28, r30
Sets MatrizJugador1 corresponding to the existance of a ship on the coordinates.*/
void scanCargueros1(int8_t x, int8_t y)
{
	for(int i=0; i<=1; i++)
	{
		if ((carguerosJugador1[i].x0 == x) & (carguerosJugador1[i].y0 == y))
     984:	20 81       	ld	r18, Z
     986:	30 e0       	ldi	r19, 0x00	; 0
     988:	41 81       	ldd	r20, Z+1	; 0x01
     98a:	50 e0       	ldi	r21, 0x00	; 0
     98c:	1b 2d       	mov	r17, r11
     98e:	28 17       	cp	r18, r24
     990:	39 07       	cpc	r19, r25
     992:	09 f0       	breq	.+2      	; 0x996 <scanCargueros1+0x82>
     994:	1a 2d       	mov	r17, r10
     996:	11 23       	and	r17, r17
     998:	09 f4       	brne	.+2      	; 0x99c <scanCargueros1+0x88>
     99a:	52 c0       	rjmp	.+164    	; 0xa40 <scanCargueros1+0x12c>
     99c:	1b 2d       	mov	r17, r11
     99e:	46 17       	cp	r20, r22
     9a0:	57 07       	cpc	r21, r23
     9a2:	09 f0       	breq	.+2      	; 0x9a6 <scanCargueros1+0x92>
     9a4:	1a 2d       	mov	r17, r10
     9a6:	11 23       	and	r17, r17
     9a8:	09 f4       	brne	.+2      	; 0x9ac <scanCargueros1+0x98>
     9aa:	4a c0       	rjmp	.+148    	; 0xa40 <scanCargueros1+0x12c>
		{
			carguerosJugador1[i].boolDisparado0 = 1;
     9ac:	ba 82       	std	Y+2, r11	; 0x02
			if ((carguerosJugador1[i].boolDisparado0 == 1) & (carguerosJugador1[i].boolDisparado1 == 1))
     9ae:	1d 81       	ldd	r17, Y+5	; 0x05
     9b0:	11 30       	cpi	r17, 0x01	; 1
     9b2:	d9 f5       	brne	.+118    	; 0xa2a <scanCargueros1+0x116>
			{
				matrizJugador1[carguerosJugador1[i].x0][carguerosJugador1[i].y0] = Hundido;
     9b4:	8a 01       	movw	r16, r20
     9b6:	00 0f       	add	r16, r16
     9b8:	11 1f       	adc	r17, r17
     9ba:	40 0f       	add	r20, r16
     9bc:	51 1f       	adc	r21, r17
     9be:	89 01       	movw	r16, r18
     9c0:	00 0f       	add	r16, r16
     9c2:	11 1f       	adc	r17, r17
     9c4:	20 0f       	add	r18, r16
     9c6:	31 1f       	adc	r19, r17
     9c8:	22 0f       	add	r18, r18
     9ca:	33 1f       	adc	r19, r19
     9cc:	22 0f       	add	r18, r18
     9ce:	33 1f       	adc	r19, r19
     9d0:	22 0f       	add	r18, r18
     9d2:	33 1f       	adc	r19, r19
     9d4:	42 0f       	add	r20, r18
     9d6:	53 1f       	adc	r21, r19
     9d8:	49 5d       	subi	r20, 0xD9	; 217
     9da:	5d 4f       	sbci	r21, 0xFD	; 253
     9dc:	60 90 35 01 	lds	r6, 0x0135	; 0x800135 <Hundido>
     9e0:	70 90 36 01 	lds	r7, 0x0136	; 0x800136 <Hundido+0x1>
     9e4:	80 90 37 01 	lds	r8, 0x0137	; 0x800137 <Hundido+0x2>
     9e8:	da 01       	movw	r26, r20
     9ea:	6d 92       	st	X+, r6
     9ec:	7d 92       	st	X+, r7
     9ee:	8c 92       	st	X, r8
				matrizJugador1[carguerosJugador1[i].x1][carguerosJugador1[i].y1] = Hundido;
     9f0:	4c 81       	ldd	r20, Y+4	; 0x04
     9f2:	50 e0       	ldi	r21, 0x00	; 0
     9f4:	2b 81       	ldd	r18, Y+3	; 0x03
     9f6:	30 e0       	ldi	r19, 0x00	; 0
     9f8:	ea 01       	movw	r28, r20
     9fa:	cc 0f       	add	r28, r28
     9fc:	dd 1f       	adc	r29, r29
     9fe:	4c 0f       	add	r20, r28
     a00:	5d 1f       	adc	r21, r29
     a02:	e9 01       	movw	r28, r18
     a04:	cc 0f       	add	r28, r28
     a06:	dd 1f       	adc	r29, r29
     a08:	c2 0f       	add	r28, r18
     a0a:	d3 1f       	adc	r29, r19
     a0c:	cc 0f       	add	r28, r28
     a0e:	dd 1f       	adc	r29, r29
     a10:	cc 0f       	add	r28, r28
     a12:	dd 1f       	adc	r29, r29
     a14:	cc 0f       	add	r28, r28
     a16:	dd 1f       	adc	r29, r29
     a18:	4c 0f       	add	r20, r28
     a1a:	5d 1f       	adc	r21, r29
     a1c:	ea 01       	movw	r28, r20
     a1e:	c9 5d       	subi	r28, 0xD9	; 217
     a20:	dd 4f       	sbci	r29, 0xFD	; 253
     a22:	68 82       	st	Y, r6
     a24:	79 82       	std	Y+1, r7	; 0x01
     a26:	8a 82       	std	Y+2, r8	; 0x02
     a28:	63 c0       	rjmp	.+198    	; 0xaf0 <scanCargueros1+0x1dc>
			}
			else
				matrizJugador1[x][y] = Danado;
     a2a:	20 91 2f 01 	lds	r18, 0x012F	; 0x80012f <Danado>
     a2e:	30 91 30 01 	lds	r19, 0x0130	; 0x800130 <Danado+0x1>
     a32:	40 91 31 01 	lds	r20, 0x0131	; 0x800131 <Danado+0x2>
     a36:	d2 01       	movw	r26, r4
     a38:	2d 93       	st	X+, r18
     a3a:	3d 93       	st	X+, r19
     a3c:	4c 93       	st	X, r20
     a3e:	58 c0       	rjmp	.+176    	; 0xaf0 <scanCargueros1+0x1dc>
		}
		else if ((carguerosJugador1[i].x1 == x) & (carguerosJugador1[i].y1 == y))
     a40:	0b 81       	ldd	r16, Y+3	; 0x03
     a42:	10 e0       	ldi	r17, 0x00	; 0
     a44:	cc 80       	ldd	r12, Y+4	; 0x04
     a46:	d1 2c       	mov	r13, r1
     a48:	8b 2c       	mov	r8, r11
     a4a:	80 17       	cp	r24, r16
     a4c:	91 07       	cpc	r25, r17
     a4e:	09 f0       	breq	.+2      	; 0xa52 <scanCargueros1+0x13e>
     a50:	8a 2c       	mov	r8, r10
     a52:	88 20       	and	r8, r8
     a54:	09 f4       	brne	.+2      	; 0xa58 <scanCargueros1+0x144>
     a56:	4c c0       	rjmp	.+152    	; 0xaf0 <scanCargueros1+0x1dc>
     a58:	8b 2c       	mov	r8, r11
     a5a:	6c 15       	cp	r22, r12
     a5c:	7d 05       	cpc	r23, r13
     a5e:	09 f0       	breq	.+2      	; 0xa62 <scanCargueros1+0x14e>
     a60:	8a 2c       	mov	r8, r10
     a62:	88 20       	and	r8, r8
     a64:	09 f4       	brne	.+2      	; 0xa68 <scanCargueros1+0x154>
     a66:	44 c0       	rjmp	.+136    	; 0xaf0 <scanCargueros1+0x1dc>
		{
			carguerosJugador1[i].boolDisparado1 = 1;
     a68:	bd 82       	std	Y+5, r11	; 0x05
			if ((carguerosJugador1[i].boolDisparado0 == 1) & (carguerosJugador1[i].boolDisparado1 == 1))
     a6a:	ca 81       	ldd	r28, Y+2	; 0x02
     a6c:	c1 30       	cpi	r28, 0x01	; 1
     a6e:	b1 f5       	brne	.+108    	; 0xadc <scanCargueros1+0x1c8>
			{
				matrizJugador1[carguerosJugador1[i].x0][carguerosJugador1[i].y0] = Hundido;
     a70:	ea 01       	movw	r28, r20
     a72:	cc 0f       	add	r28, r28
     a74:	dd 1f       	adc	r29, r29
     a76:	4c 0f       	add	r20, r28
     a78:	5d 1f       	adc	r21, r29
     a7a:	e9 01       	movw	r28, r18
     a7c:	cc 0f       	add	r28, r28
     a7e:	dd 1f       	adc	r29, r29
     a80:	c2 0f       	add	r28, r18
     a82:	d3 1f       	adc	r29, r19
     a84:	cc 0f       	add	r28, r28
     a86:	dd 1f       	adc	r29, r29
     a88:	cc 0f       	add	r28, r28
     a8a:	dd 1f       	adc	r29, r29
     a8c:	cc 0f       	add	r28, r28
     a8e:	dd 1f       	adc	r29, r29
     a90:	4c 0f       	add	r20, r28
     a92:	5d 1f       	adc	r21, r29
     a94:	ea 01       	movw	r28, r20
     a96:	c9 5d       	subi	r28, 0xD9	; 217
     a98:	dd 4f       	sbci	r29, 0xFD	; 253
     a9a:	20 91 35 01 	lds	r18, 0x0135	; 0x800135 <Hundido>
     a9e:	30 91 36 01 	lds	r19, 0x0136	; 0x800136 <Hundido+0x1>
     aa2:	40 91 37 01 	lds	r20, 0x0137	; 0x800137 <Hundido+0x2>
     aa6:	28 83       	st	Y, r18
     aa8:	39 83       	std	Y+1, r19	; 0x01
     aaa:	4a 83       	std	Y+2, r20	; 0x02
				matrizJugador1[carguerosJugador1[i].x1][carguerosJugador1[i].y1] = Hundido;
     aac:	e6 01       	movw	r28, r12
     aae:	cc 0f       	add	r28, r28
     ab0:	dd 1f       	adc	r29, r29
     ab2:	cc 0e       	add	r12, r28
     ab4:	dd 1e       	adc	r13, r29
     ab6:	e8 01       	movw	r28, r16
     ab8:	cc 0f       	add	r28, r28
     aba:	dd 1f       	adc	r29, r29
     abc:	c0 0f       	add	r28, r16
     abe:	d1 1f       	adc	r29, r17
     ac0:	cc 0f       	add	r28, r28
     ac2:	dd 1f       	adc	r29, r29
     ac4:	cc 0f       	add	r28, r28
     ac6:	dd 1f       	adc	r29, r29
     ac8:	cc 0f       	add	r28, r28
     aca:	dd 1f       	adc	r29, r29
     acc:	cc 0d       	add	r28, r12
     ace:	dd 1d       	adc	r29, r13
     ad0:	c9 5d       	subi	r28, 0xD9	; 217
     ad2:	dd 4f       	sbci	r29, 0xFD	; 253
     ad4:	28 83       	st	Y, r18
     ad6:	39 83       	std	Y+1, r19	; 0x01
     ad8:	4a 83       	std	Y+2, r20	; 0x02
     ada:	0a c0       	rjmp	.+20     	; 0xaf0 <scanCargueros1+0x1dc>
			}
			else
				matrizJugador1[x][y] = Danado;
     adc:	20 91 2f 01 	lds	r18, 0x012F	; 0x80012f <Danado>
     ae0:	30 91 30 01 	lds	r19, 0x0130	; 0x800130 <Danado+0x1>
     ae4:	40 91 31 01 	lds	r20, 0x0131	; 0x800131 <Danado+0x2>
     ae8:	d2 01       	movw	r26, r4
     aea:	2d 93       	st	X+, r18
     aec:	3d 93       	st	X+, r19
     aee:	4c 93       	st	X, r20
     af0:	36 96       	adiw	r30, 0x06	; 6

/* Takes coordinates x, y from 0:7 as arguments and scans Cargueros of player1.
Sets MatrizJugador1 corresponding to the existance of a ship on the coordinates.*/
void scanCargueros1(int8_t x, int8_t y)
{
	for(int i=0; i<=1; i++)
     af2:	ee 15       	cp	r30, r14
     af4:	ff 05       	cpc	r31, r15
     af6:	09 f0       	breq	.+2      	; 0xafa <scanCargueros1+0x1e6>
     af8:	44 cf       	rjmp	.-376    	; 0x982 <scanCargueros1+0x6e>
			}
			else
				matrizJugador1[x][y] = Danado;
		}
	}
}
     afa:	df 91       	pop	r29
     afc:	cf 91       	pop	r28
     afe:	1f 91       	pop	r17
     b00:	0f 91       	pop	r16
     b02:	ff 90       	pop	r15
     b04:	ef 90       	pop	r14
     b06:	df 90       	pop	r13
     b08:	cf 90       	pop	r12
     b0a:	bf 90       	pop	r11
     b0c:	af 90       	pop	r10
     b0e:	8f 90       	pop	r8
     b10:	7f 90       	pop	r7
     b12:	6f 90       	pop	r6
     b14:	5f 90       	pop	r5
     b16:	4f 90       	pop	r4
     b18:	08 95       	ret

00000b1a <shootPlayer1>:
			display_rgb[i][j] = matrizJugador2[i][j];
}

/* Takes coordinates x, y from 0:7 as arguments and shoots player1 there.*/
void shootPlayer1(int8_t x, int8_t y)
{
     b1a:	cf 93       	push	r28
     b1c:	df 93       	push	r29
     b1e:	c8 2f       	mov	r28, r24
     b20:	d6 2f       	mov	r29, r22
	matrizJugador1[x][y] = Agua;
     b22:	e6 2f       	mov	r30, r22
     b24:	06 2e       	mov	r0, r22
     b26:	00 0c       	add	r0, r0
     b28:	ff 0b       	sbc	r31, r31
     b2a:	08 2e       	mov	r0, r24
     b2c:	00 0c       	add	r0, r0
     b2e:	99 0b       	sbc	r25, r25
     b30:	9f 01       	movw	r18, r30
     b32:	22 0f       	add	r18, r18
     b34:	33 1f       	adc	r19, r19
     b36:	e2 0f       	add	r30, r18
     b38:	f3 1f       	adc	r31, r19
     b3a:	9c 01       	movw	r18, r24
     b3c:	22 0f       	add	r18, r18
     b3e:	33 1f       	adc	r19, r19
     b40:	82 0f       	add	r24, r18
     b42:	93 1f       	adc	r25, r19
     b44:	88 0f       	add	r24, r24
     b46:	99 1f       	adc	r25, r25
     b48:	88 0f       	add	r24, r24
     b4a:	99 1f       	adc	r25, r25
     b4c:	88 0f       	add	r24, r24
     b4e:	99 1f       	adc	r25, r25
     b50:	e8 0f       	add	r30, r24
     b52:	f9 1f       	adc	r31, r25
     b54:	e9 5d       	subi	r30, 0xD9	; 217
     b56:	fd 4f       	sbci	r31, 0xFD	; 253
     b58:	80 91 32 01 	lds	r24, 0x0132	; 0x800132 <Agua>
     b5c:	90 91 33 01 	lds	r25, 0x0133	; 0x800133 <Agua+0x1>
     b60:	a0 91 34 01 	lds	r26, 0x0134	; 0x800134 <Agua+0x2>
     b64:	80 83       	st	Z, r24
     b66:	91 83       	std	Z+1, r25	; 0x01
     b68:	a2 83       	std	Z+2, r26	; 0x02
	scanSubmarinos1(x, y);
     b6a:	8c 2f       	mov	r24, r28
     b6c:	17 de       	rcall	.-978    	; 0x79c <scanSubmarinos1>
	scanCargueros1(x, y);
     b6e:	6d 2f       	mov	r22, r29
     b70:	8c 2f       	mov	r24, r28
     b72:	d0 de       	rcall	.-608    	; 0x914 <scanCargueros1>
}
     b74:	df 91       	pop	r29
     b76:	cf 91       	pop	r28
     b78:	08 95       	ret

00000b7a <playPlayer2>:
	playerTurn = 2;
}

/* Cycle of a shot for player2.*/
void playPlayer2(void)
{
     b7a:	0f 93       	push	r16
     b7c:	1f 93       	push	r17
     b7e:	cf 93       	push	r28
     b80:	df 93       	push	r29
     b82:	00 d0       	rcall	.+0      	; 0xb84 <playPlayer2+0xa>
     b84:	cd b7       	in	r28, 0x3d	; 61
     b86:	de b7       	in	r29, 0x3e	; 62
	// Actions to do only once per cycle
	volatile int gamePointerTilt = GAME_POINTER_SPEED;
     b88:	84 e1       	ldi	r24, 0x14	; 20
     b8a:	90 e0       	ldi	r25, 0x00	; 0
     b8c:	9a 83       	std	Y+2, r25	; 0x02
     b8e:	89 83       	std	Y+1, r24	; 0x01
	
	while(jButton != 0)
     b90:	80 91 00 01 	lds	r24, 0x0100	; 0x800100 <__DATA_REGION_ORIGIN__>
     b94:	88 23       	and	r24, r24
     b96:	09 f4       	brne	.+2      	; 0xb9a <playPlayer2+0x20>
     b98:	73 c0       	rjmp	.+230    	; 0xc80 <playPlayer2+0x106>
	{
		if (gamePointerTilt == 0)
		{
			copyArrayOf1();
			display_rgb[xMovement][yMovement] = GamePointer;
			gamePointerTilt = GAME_POINTER_SPEED;
     b9a:	04 e1       	ldi	r16, 0x14	; 20
     b9c:	10 e0       	ldi	r17, 0x00	; 0
	// Actions to do only once per cycle
	volatile int gamePointerTilt = GAME_POINTER_SPEED;
	
	while(jButton != 0)
	{
		if (gamePointerTilt == 0)
     b9e:	89 81       	ldd	r24, Y+1	; 0x01
     ba0:	9a 81       	ldd	r25, Y+2	; 0x02
     ba2:	89 2b       	or	r24, r25
     ba4:	39 f5       	brne	.+78     	; 0xbf4 <playPlayer2+0x7a>
		{
			copyArrayOf1();
     ba6:	bc dd       	rcall	.-1160   	; 0x720 <copyArrayOf1>
			display_rgb[xMovement][yMovement] = GamePointer;
     ba8:	e0 91 60 01 	lds	r30, 0x0160	; 0x800160 <yMovement>
     bac:	f0 e0       	ldi	r31, 0x00	; 0
     bae:	80 91 61 01 	lds	r24, 0x0161	; 0x800161 <xMovement>
     bb2:	90 e0       	ldi	r25, 0x00	; 0
     bb4:	9f 01       	movw	r18, r30
     bb6:	22 0f       	add	r18, r18
     bb8:	33 1f       	adc	r19, r19
     bba:	e2 0f       	add	r30, r18
     bbc:	f3 1f       	adc	r31, r19
     bbe:	9c 01       	movw	r18, r24
     bc0:	22 0f       	add	r18, r18
     bc2:	33 1f       	adc	r19, r19
     bc4:	82 0f       	add	r24, r18
     bc6:	93 1f       	adc	r25, r19
     bc8:	88 0f       	add	r24, r24
     bca:	99 1f       	adc	r25, r25
     bcc:	88 0f       	add	r24, r24
     bce:	99 1f       	adc	r25, r25
     bd0:	88 0f       	add	r24, r24
     bd2:	99 1f       	adc	r25, r25
     bd4:	e8 0f       	add	r30, r24
     bd6:	f9 1f       	adc	r31, r25
     bd8:	eb 59       	subi	r30, 0x9B	; 155
     bda:	fe 4f       	sbci	r31, 0xFE	; 254
     bdc:	80 91 38 01 	lds	r24, 0x0138	; 0x800138 <GamePointer>
     be0:	90 91 39 01 	lds	r25, 0x0139	; 0x800139 <GamePointer+0x1>
     be4:	a0 91 3a 01 	lds	r26, 0x013A	; 0x80013a <GamePointer+0x2>
     be8:	80 83       	st	Z, r24
     bea:	91 83       	std	Z+1, r25	; 0x01
     bec:	a2 83       	std	Z+2, r26	; 0x02
			gamePointerTilt = GAME_POINTER_SPEED;
     bee:	1a 83       	std	Y+2, r17	; 0x02
     bf0:	09 83       	std	Y+1, r16	; 0x01
     bf2:	34 c0       	rjmp	.+104    	; 0xc5c <playPlayer2+0xe2>
		}
		else if (gamePointerTilt >= GAME_POINTER_SPEED/2)
     bf4:	89 81       	ldd	r24, Y+1	; 0x01
     bf6:	9a 81       	ldd	r25, Y+2	; 0x02
     bf8:	0a 97       	sbiw	r24, 0x0a	; 10
		{
			copyArrayOf1();
     bfa:	54 f1       	brlt	.+84     	; 0xc50 <playPlayer2+0xd6>
     bfc:	91 dd       	rcall	.-1246   	; 0x720 <copyArrayOf1>
			display_rgb[xMovement][yMovement] = GamePointer;
     bfe:	e0 91 60 01 	lds	r30, 0x0160	; 0x800160 <yMovement>
     c02:	f0 e0       	ldi	r31, 0x00	; 0
     c04:	80 91 61 01 	lds	r24, 0x0161	; 0x800161 <xMovement>
     c08:	90 e0       	ldi	r25, 0x00	; 0
     c0a:	9f 01       	movw	r18, r30
     c0c:	22 0f       	add	r18, r18
     c0e:	33 1f       	adc	r19, r19
     c10:	e2 0f       	add	r30, r18
     c12:	f3 1f       	adc	r31, r19
     c14:	9c 01       	movw	r18, r24
     c16:	22 0f       	add	r18, r18
     c18:	33 1f       	adc	r19, r19
     c1a:	82 0f       	add	r24, r18
     c1c:	93 1f       	adc	r25, r19
     c1e:	88 0f       	add	r24, r24
     c20:	99 1f       	adc	r25, r25
     c22:	88 0f       	add	r24, r24
     c24:	99 1f       	adc	r25, r25
     c26:	88 0f       	add	r24, r24
     c28:	99 1f       	adc	r25, r25
     c2a:	e8 0f       	add	r30, r24
     c2c:	f9 1f       	adc	r31, r25
     c2e:	eb 59       	subi	r30, 0x9B	; 155
     c30:	fe 4f       	sbci	r31, 0xFE	; 254
     c32:	80 91 38 01 	lds	r24, 0x0138	; 0x800138 <GamePointer>
     c36:	90 91 39 01 	lds	r25, 0x0139	; 0x800139 <GamePointer+0x1>
     c3a:	a0 91 3a 01 	lds	r26, 0x013A	; 0x80013a <GamePointer+0x2>
     c3e:	80 83       	st	Z, r24
     c40:	91 83       	std	Z+1, r25	; 0x01
     c42:	a2 83       	std	Z+2, r26	; 0x02
			gamePointerTilt--;
     c44:	89 81       	ldd	r24, Y+1	; 0x01
     c46:	9a 81       	ldd	r25, Y+2	; 0x02
     c48:	01 97       	sbiw	r24, 0x01	; 1
     c4a:	9a 83       	std	Y+2, r25	; 0x02
     c4c:	89 83       	std	Y+1, r24	; 0x01
		}
		else
		{
			copyArrayOf1();
     c4e:	06 c0       	rjmp	.+12     	; 0xc5c <playPlayer2+0xe2>
     c50:	67 dd       	rcall	.-1330   	; 0x720 <copyArrayOf1>
			gamePointerTilt--;
     c52:	89 81       	ldd	r24, Y+1	; 0x01
     c54:	9a 81       	ldd	r25, Y+2	; 0x02
     c56:	01 97       	sbiw	r24, 0x01	; 1
     c58:	9a 83       	std	Y+2, r25	; 0x02
     c5a:	89 83       	std	Y+1, r24	; 0x01
		}
		
		wrt_ws2812(p2disp);
     c5c:	80 91 25 02 	lds	r24, 0x0225	; 0x800225 <p2disp>
     c60:	90 91 26 02 	lds	r25, 0x0226	; 0x800226 <p2disp+0x1>
     c64:	28 da       	rcall	.-2992   	; 0xb6 <wrt_ws2812>
     c66:	2f ef       	ldi	r18, 0xFF	; 255
     c68:	89 ef       	ldi	r24, 0xF9	; 249
     c6a:	90 e0       	ldi	r25, 0x00	; 0
     c6c:	21 50       	subi	r18, 0x01	; 1
     c6e:	80 40       	sbci	r24, 0x00	; 0
     c70:	90 40       	sbci	r25, 0x00	; 0
     c72:	e1 f7       	brne	.-8      	; 0xc6c <playPlayer2+0xf2>
     c74:	00 c0       	rjmp	.+0      	; 0xc76 <playPlayer2+0xfc>
     c76:	00 00       	nop
void playPlayer2(void)
{
	// Actions to do only once per cycle
	volatile int gamePointerTilt = GAME_POINTER_SPEED;
	
	while(jButton != 0)
     c78:	80 91 00 01 	lds	r24, 0x0100	; 0x800100 <__DATA_REGION_ORIGIN__>
     c7c:	81 11       	cpse	r24, r1
     c7e:	8f cf       	rjmp	.-226    	; 0xb9e <playPlayer2+0x24>
		wrt_ws2812(p2disp);
		
		_delay_ms(20);
	}
	// Actions to end the player cycle
	shootPlayer1(xMovement, yMovement);
     c80:	60 91 60 01 	lds	r22, 0x0160	; 0x800160 <yMovement>
     c84:	80 91 61 01 	lds	r24, 0x0161	; 0x800161 <xMovement>
	
	copyArrayOf1();
     c88:	48 df       	rcall	.-368    	; 0xb1a <shootPlayer1>
	wrt_ws2812(p2disp);
     c8a:	4a dd       	rcall	.-1388   	; 0x720 <copyArrayOf1>
     c8c:	80 91 25 02 	lds	r24, 0x0225	; 0x800225 <p2disp>
     c90:	90 91 26 02 	lds	r25, 0x0226	; 0x800226 <p2disp+0x1>
	
	delaySeconds(DELAY_BETWEEN_SHOTS);
     c94:	10 da       	rcall	.-3040   	; 0xb6 <wrt_ws2812>
     c96:	83 e0       	ldi	r24, 0x03	; 3
     c98:	10 dd       	rcall	.-1504   	; 0x6ba <delaySeconds>
	playerTurn = 1;
     c9a:	81 e0       	ldi	r24, 0x01	; 1
     c9c:	80 93 62 01 	sts	0x0162, r24	; 0x800162 <playerTurn>
}
     ca0:	0f 90       	pop	r0
     ca2:	0f 90       	pop	r0
     ca4:	df 91       	pop	r29
     ca6:	cf 91       	pop	r28
     ca8:	1f 91       	pop	r17
     caa:	0f 91       	pop	r16
     cac:	08 95       	ret

00000cae <scanCargueros2>:
}

/* Takes coordinates x, y from 0:7 as arguments and scans Cargueros of player2.
Sets MatrizJugador2 corresponding to the existance of a ship on the coordinates.*/
void scanCargueros2(int8_t x, int8_t y)
{	
     cae:	4f 92       	push	r4
     cb0:	5f 92       	push	r5
     cb2:	6f 92       	push	r6
     cb4:	7f 92       	push	r7
     cb6:	8f 92       	push	r8
     cb8:	af 92       	push	r10
     cba:	bf 92       	push	r11
     cbc:	cf 92       	push	r12
     cbe:	df 92       	push	r13
     cc0:	ef 92       	push	r14
     cc2:	ff 92       	push	r15
     cc4:	0f 93       	push	r16
     cc6:	1f 93       	push	r17
     cc8:	cf 93       	push	r28
     cca:	df 93       	push	r29
     ccc:	e5 e0       	ldi	r30, 0x05	; 5
     cce:	f1 e0       	ldi	r31, 0x01	; 1
     cd0:	0f 2e       	mov	r0, r31
     cd2:	f1 e1       	ldi	r31, 0x11	; 17
     cd4:	ef 2e       	mov	r14, r31
     cd6:	f1 e0       	ldi	r31, 0x01	; 1
     cd8:	ff 2e       	mov	r15, r31
     cda:	f0 2d       	mov	r31, r0
	for(int i=0; i<=1; i++)
	{
		if ((carguerosJugador2[i].x0 == x) & (carguerosJugador2[i].y0 == y))
     cdc:	08 2e       	mov	r0, r24
     cde:	00 0c       	add	r0, r0
     ce0:	99 0b       	sbc	r25, r25
     ce2:	06 2e       	mov	r0, r22
     ce4:	00 0c       	add	r0, r0
     ce6:	77 0b       	sbc	r23, r23
     ce8:	bb 24       	eor	r11, r11
     cea:	b3 94       	inc	r11
     cec:	a1 2c       	mov	r10, r1
			{
				matrizJugador2[carguerosJugador2[i].x0][carguerosJugador2[i].y0] = Hundido;
				matrizJugador2[carguerosJugador2[i].x1][carguerosJugador2[i].y1] = Hundido;
			}
			else
				matrizJugador2[x][y] = Danado;
     cee:	9b 01       	movw	r18, r22
     cf0:	22 0f       	add	r18, r18
     cf2:	33 1f       	adc	r19, r19
     cf4:	a9 01       	movw	r20, r18
     cf6:	46 0f       	add	r20, r22
     cf8:	57 1f       	adc	r21, r23
     cfa:	9c 01       	movw	r18, r24
     cfc:	22 0f       	add	r18, r18
     cfe:	33 1f       	adc	r19, r19
     d00:	28 0f       	add	r18, r24
     d02:	39 1f       	adc	r19, r25
     d04:	22 0f       	add	r18, r18
     d06:	33 1f       	adc	r19, r19
     d08:	22 0f       	add	r18, r18
     d0a:	33 1f       	adc	r19, r19
     d0c:	22 0f       	add	r18, r18
     d0e:	33 1f       	adc	r19, r19
     d10:	24 0f       	add	r18, r20
     d12:	35 1f       	adc	r19, r21
     d14:	a9 01       	movw	r20, r18
     d16:	49 51       	subi	r20, 0x19	; 25
     d18:	5d 4f       	sbci	r21, 0xFD	; 253
     d1a:	2a 01       	movw	r4, r20
     d1c:	ef 01       	movw	r28, r30
Sets MatrizJugador2 corresponding to the existance of a ship on the coordinates.*/
void scanCargueros2(int8_t x, int8_t y)
{	
	for(int i=0; i<=1; i++)
	{
		if ((carguerosJugador2[i].x0 == x) & (carguerosJugador2[i].y0 == y))
     d1e:	20 81       	ld	r18, Z
     d20:	30 e0       	ldi	r19, 0x00	; 0
     d22:	41 81       	ldd	r20, Z+1	; 0x01
     d24:	50 e0       	ldi	r21, 0x00	; 0
     d26:	1b 2d       	mov	r17, r11
     d28:	28 17       	cp	r18, r24
     d2a:	39 07       	cpc	r19, r25
     d2c:	09 f0       	breq	.+2      	; 0xd30 <scanCargueros2+0x82>
     d2e:	1a 2d       	mov	r17, r10
     d30:	11 23       	and	r17, r17
     d32:	09 f4       	brne	.+2      	; 0xd36 <scanCargueros2+0x88>
     d34:	52 c0       	rjmp	.+164    	; 0xdda <scanCargueros2+0x12c>
     d36:	1b 2d       	mov	r17, r11
     d38:	46 17       	cp	r20, r22
     d3a:	57 07       	cpc	r21, r23
     d3c:	09 f0       	breq	.+2      	; 0xd40 <scanCargueros2+0x92>
     d3e:	1a 2d       	mov	r17, r10
     d40:	11 23       	and	r17, r17
     d42:	09 f4       	brne	.+2      	; 0xd46 <scanCargueros2+0x98>
     d44:	4a c0       	rjmp	.+148    	; 0xdda <scanCargueros2+0x12c>
		{
			carguerosJugador2[i].boolDisparado0 = 1;
     d46:	ba 82       	std	Y+2, r11	; 0x02
			if ((carguerosJugador2[i].boolDisparado0 == 1) & (carguerosJugador2[i].boolDisparado1 == 1))
     d48:	1d 81       	ldd	r17, Y+5	; 0x05
     d4a:	11 30       	cpi	r17, 0x01	; 1
     d4c:	d9 f5       	brne	.+118    	; 0xdc4 <scanCargueros2+0x116>
			{
				matrizJugador2[carguerosJugador2[i].x0][carguerosJugador2[i].y0] = Hundido;
     d4e:	8a 01       	movw	r16, r20
     d50:	00 0f       	add	r16, r16
     d52:	11 1f       	adc	r17, r17
     d54:	40 0f       	add	r20, r16
     d56:	51 1f       	adc	r21, r17
     d58:	89 01       	movw	r16, r18
     d5a:	00 0f       	add	r16, r16
     d5c:	11 1f       	adc	r17, r17
     d5e:	20 0f       	add	r18, r16
     d60:	31 1f       	adc	r19, r17
     d62:	22 0f       	add	r18, r18
     d64:	33 1f       	adc	r19, r19
     d66:	22 0f       	add	r18, r18
     d68:	33 1f       	adc	r19, r19
     d6a:	22 0f       	add	r18, r18
     d6c:	33 1f       	adc	r19, r19
     d6e:	42 0f       	add	r20, r18
     d70:	53 1f       	adc	r21, r19
     d72:	49 51       	subi	r20, 0x19	; 25
     d74:	5d 4f       	sbci	r21, 0xFD	; 253
     d76:	60 90 35 01 	lds	r6, 0x0135	; 0x800135 <Hundido>
     d7a:	70 90 36 01 	lds	r7, 0x0136	; 0x800136 <Hundido+0x1>
     d7e:	80 90 37 01 	lds	r8, 0x0137	; 0x800137 <Hundido+0x2>
     d82:	da 01       	movw	r26, r20
     d84:	6d 92       	st	X+, r6
     d86:	7d 92       	st	X+, r7
     d88:	8c 92       	st	X, r8
				matrizJugador2[carguerosJugador2[i].x1][carguerosJugador2[i].y1] = Hundido;
     d8a:	4c 81       	ldd	r20, Y+4	; 0x04
     d8c:	50 e0       	ldi	r21, 0x00	; 0
     d8e:	2b 81       	ldd	r18, Y+3	; 0x03
     d90:	30 e0       	ldi	r19, 0x00	; 0
     d92:	ea 01       	movw	r28, r20
     d94:	cc 0f       	add	r28, r28
     d96:	dd 1f       	adc	r29, r29
     d98:	4c 0f       	add	r20, r28
     d9a:	5d 1f       	adc	r21, r29
     d9c:	e9 01       	movw	r28, r18
     d9e:	cc 0f       	add	r28, r28
     da0:	dd 1f       	adc	r29, r29
     da2:	c2 0f       	add	r28, r18
     da4:	d3 1f       	adc	r29, r19
     da6:	cc 0f       	add	r28, r28
     da8:	dd 1f       	adc	r29, r29
     daa:	cc 0f       	add	r28, r28
     dac:	dd 1f       	adc	r29, r29
     dae:	cc 0f       	add	r28, r28
     db0:	dd 1f       	adc	r29, r29
     db2:	4c 0f       	add	r20, r28
     db4:	5d 1f       	adc	r21, r29
     db6:	ea 01       	movw	r28, r20
     db8:	c9 51       	subi	r28, 0x19	; 25
     dba:	dd 4f       	sbci	r29, 0xFD	; 253
     dbc:	68 82       	st	Y, r6
     dbe:	79 82       	std	Y+1, r7	; 0x01
     dc0:	8a 82       	std	Y+2, r8	; 0x02
     dc2:	63 c0       	rjmp	.+198    	; 0xe8a <scanCargueros2+0x1dc>
			}
			else
				matrizJugador2[x][y] = Danado;
     dc4:	20 91 2f 01 	lds	r18, 0x012F	; 0x80012f <Danado>
     dc8:	30 91 30 01 	lds	r19, 0x0130	; 0x800130 <Danado+0x1>
     dcc:	40 91 31 01 	lds	r20, 0x0131	; 0x800131 <Danado+0x2>
     dd0:	d2 01       	movw	r26, r4
     dd2:	2d 93       	st	X+, r18
     dd4:	3d 93       	st	X+, r19
     dd6:	4c 93       	st	X, r20
     dd8:	58 c0       	rjmp	.+176    	; 0xe8a <scanCargueros2+0x1dc>
		}
		else if ((carguerosJugador2[i].x1 == x) & (carguerosJugador2[i].y1 == y))
     dda:	0b 81       	ldd	r16, Y+3	; 0x03
     ddc:	10 e0       	ldi	r17, 0x00	; 0
     dde:	cc 80       	ldd	r12, Y+4	; 0x04
     de0:	d1 2c       	mov	r13, r1
     de2:	8b 2c       	mov	r8, r11
     de4:	80 17       	cp	r24, r16
     de6:	91 07       	cpc	r25, r17
     de8:	09 f0       	breq	.+2      	; 0xdec <scanCargueros2+0x13e>
     dea:	8a 2c       	mov	r8, r10
     dec:	88 20       	and	r8, r8
     dee:	09 f4       	brne	.+2      	; 0xdf2 <scanCargueros2+0x144>
     df0:	4c c0       	rjmp	.+152    	; 0xe8a <scanCargueros2+0x1dc>
     df2:	8b 2c       	mov	r8, r11
     df4:	6c 15       	cp	r22, r12
     df6:	7d 05       	cpc	r23, r13
     df8:	09 f0       	breq	.+2      	; 0xdfc <scanCargueros2+0x14e>
     dfa:	8a 2c       	mov	r8, r10
     dfc:	88 20       	and	r8, r8
     dfe:	09 f4       	brne	.+2      	; 0xe02 <scanCargueros2+0x154>
     e00:	44 c0       	rjmp	.+136    	; 0xe8a <scanCargueros2+0x1dc>
		{
			carguerosJugador2[i].boolDisparado1 = 1;
     e02:	bd 82       	std	Y+5, r11	; 0x05
			if ((carguerosJugador2[i].boolDisparado0 == 1) & (carguerosJugador2[i].boolDisparado1 == 1))
     e04:	ca 81       	ldd	r28, Y+2	; 0x02
     e06:	c1 30       	cpi	r28, 0x01	; 1
     e08:	b1 f5       	brne	.+108    	; 0xe76 <scanCargueros2+0x1c8>
			{
				matrizJugador2[carguerosJugador2[i].x0][carguerosJugador2[i].y0] = Hundido;
     e0a:	ea 01       	movw	r28, r20
     e0c:	cc 0f       	add	r28, r28
     e0e:	dd 1f       	adc	r29, r29
     e10:	4c 0f       	add	r20, r28
     e12:	5d 1f       	adc	r21, r29
     e14:	e9 01       	movw	r28, r18
     e16:	cc 0f       	add	r28, r28
     e18:	dd 1f       	adc	r29, r29
     e1a:	c2 0f       	add	r28, r18
     e1c:	d3 1f       	adc	r29, r19
     e1e:	cc 0f       	add	r28, r28
     e20:	dd 1f       	adc	r29, r29
     e22:	cc 0f       	add	r28, r28
     e24:	dd 1f       	adc	r29, r29
     e26:	cc 0f       	add	r28, r28
     e28:	dd 1f       	adc	r29, r29
     e2a:	4c 0f       	add	r20, r28
     e2c:	5d 1f       	adc	r21, r29
     e2e:	ea 01       	movw	r28, r20
     e30:	c9 51       	subi	r28, 0x19	; 25
     e32:	dd 4f       	sbci	r29, 0xFD	; 253
     e34:	20 91 35 01 	lds	r18, 0x0135	; 0x800135 <Hundido>
     e38:	30 91 36 01 	lds	r19, 0x0136	; 0x800136 <Hundido+0x1>
     e3c:	40 91 37 01 	lds	r20, 0x0137	; 0x800137 <Hundido+0x2>
     e40:	28 83       	st	Y, r18
     e42:	39 83       	std	Y+1, r19	; 0x01
     e44:	4a 83       	std	Y+2, r20	; 0x02
				matrizJugador2[carguerosJugador2[i].x1][carguerosJugador2[i].y1] = Hundido;
     e46:	e6 01       	movw	r28, r12
     e48:	cc 0f       	add	r28, r28
     e4a:	dd 1f       	adc	r29, r29
     e4c:	cc 0e       	add	r12, r28
     e4e:	dd 1e       	adc	r13, r29
     e50:	e8 01       	movw	r28, r16
     e52:	cc 0f       	add	r28, r28
     e54:	dd 1f       	adc	r29, r29
     e56:	c0 0f       	add	r28, r16
     e58:	d1 1f       	adc	r29, r17
     e5a:	cc 0f       	add	r28, r28
     e5c:	dd 1f       	adc	r29, r29
     e5e:	cc 0f       	add	r28, r28
     e60:	dd 1f       	adc	r29, r29
     e62:	cc 0f       	add	r28, r28
     e64:	dd 1f       	adc	r29, r29
     e66:	cc 0d       	add	r28, r12
     e68:	dd 1d       	adc	r29, r13
     e6a:	c9 51       	subi	r28, 0x19	; 25
     e6c:	dd 4f       	sbci	r29, 0xFD	; 253
     e6e:	28 83       	st	Y, r18
     e70:	39 83       	std	Y+1, r19	; 0x01
     e72:	4a 83       	std	Y+2, r20	; 0x02
     e74:	0a c0       	rjmp	.+20     	; 0xe8a <scanCargueros2+0x1dc>
			}
			else
				matrizJugador2[x][y] = Danado;
     e76:	20 91 2f 01 	lds	r18, 0x012F	; 0x80012f <Danado>
     e7a:	30 91 30 01 	lds	r19, 0x0130	; 0x800130 <Danado+0x1>
     e7e:	40 91 31 01 	lds	r20, 0x0131	; 0x800131 <Danado+0x2>
     e82:	d2 01       	movw	r26, r4
     e84:	2d 93       	st	X+, r18
     e86:	3d 93       	st	X+, r19
     e88:	4c 93       	st	X, r20
     e8a:	36 96       	adiw	r30, 0x06	; 6

/* Takes coordinates x, y from 0:7 as arguments and scans Cargueros of player2.
Sets MatrizJugador2 corresponding to the existance of a ship on the coordinates.*/
void scanCargueros2(int8_t x, int8_t y)
{	
	for(int i=0; i<=1; i++)
     e8c:	ee 15       	cp	r30, r14
     e8e:	ff 05       	cpc	r31, r15
     e90:	09 f0       	breq	.+2      	; 0xe94 <scanCargueros2+0x1e6>
     e92:	44 cf       	rjmp	.-376    	; 0xd1c <scanCargueros2+0x6e>
			}
			else
				matrizJugador2[x][y] = Danado;
		}
	}
}
     e94:	df 91       	pop	r29
     e96:	cf 91       	pop	r28
     e98:	1f 91       	pop	r17
     e9a:	0f 91       	pop	r16
     e9c:	ff 90       	pop	r15
     e9e:	ef 90       	pop	r14
     ea0:	df 90       	pop	r13
     ea2:	cf 90       	pop	r12
     ea4:	bf 90       	pop	r11
     ea6:	af 90       	pop	r10
     ea8:	8f 90       	pop	r8
     eaa:	7f 90       	pop	r7
     eac:	6f 90       	pop	r6
     eae:	5f 90       	pop	r5
     eb0:	4f 90       	pop	r4
     eb2:	08 95       	ret

00000eb4 <shootPlayer2>:
	scanCargueros1(x, y);
}

/* Takes coordinates x, y from 0:7 as arguments and shoots player2 there.*/
void shootPlayer2(int8_t x, int8_t y)
{
     eb4:	cf 93       	push	r28
     eb6:	df 93       	push	r29
     eb8:	c8 2f       	mov	r28, r24
     eba:	d6 2f       	mov	r29, r22
	matrizJugador2[x][y] = Agua;
     ebc:	e6 2f       	mov	r30, r22
     ebe:	06 2e       	mov	r0, r22
     ec0:	00 0c       	add	r0, r0
     ec2:	ff 0b       	sbc	r31, r31
     ec4:	08 2e       	mov	r0, r24
     ec6:	00 0c       	add	r0, r0
     ec8:	99 0b       	sbc	r25, r25
     eca:	9f 01       	movw	r18, r30
     ecc:	22 0f       	add	r18, r18
     ece:	33 1f       	adc	r19, r19
     ed0:	e2 0f       	add	r30, r18
     ed2:	f3 1f       	adc	r31, r19
     ed4:	9c 01       	movw	r18, r24
     ed6:	22 0f       	add	r18, r18
     ed8:	33 1f       	adc	r19, r19
     eda:	82 0f       	add	r24, r18
     edc:	93 1f       	adc	r25, r19
     ede:	88 0f       	add	r24, r24
     ee0:	99 1f       	adc	r25, r25
     ee2:	88 0f       	add	r24, r24
     ee4:	99 1f       	adc	r25, r25
     ee6:	88 0f       	add	r24, r24
     ee8:	99 1f       	adc	r25, r25
     eea:	e8 0f       	add	r30, r24
     eec:	f9 1f       	adc	r31, r25
     eee:	e9 51       	subi	r30, 0x19	; 25
     ef0:	fd 4f       	sbci	r31, 0xFD	; 253
     ef2:	80 91 32 01 	lds	r24, 0x0132	; 0x800132 <Agua>
     ef6:	90 91 33 01 	lds	r25, 0x0133	; 0x800133 <Agua+0x1>
     efa:	a0 91 34 01 	lds	r26, 0x0134	; 0x800134 <Agua+0x2>
     efe:	80 83       	st	Z, r24
     f00:	91 83       	std	Z+1, r25	; 0x01
     f02:	a2 83       	std	Z+2, r26	; 0x02
	scanSubmarinos2(x, y);
     f04:	8c 2f       	mov	r24, r28
     f06:	a8 dc       	rcall	.-1712   	; 0x858 <scanSubmarinos2>
	scanCargueros2(x, y);
     f08:	6d 2f       	mov	r22, r29
     f0a:	8c 2f       	mov	r24, r28
     f0c:	d0 de       	rcall	.-608    	; 0xcae <scanCargueros2>
}
     f0e:	df 91       	pop	r29
     f10:	cf 91       	pop	r28
     f12:	08 95       	ret

00000f14 <playPlayer1>:
	}
}

/* Cycle of a shot for player1.*/
void playPlayer1(void)
{
     f14:	0f 93       	push	r16
     f16:	1f 93       	push	r17
     f18:	cf 93       	push	r28
     f1a:	df 93       	push	r29
     f1c:	00 d0       	rcall	.+0      	; 0xf1e <playPlayer1+0xa>
     f1e:	cd b7       	in	r28, 0x3d	; 61
     f20:	de b7       	in	r29, 0x3e	; 62
	// Actions to do only once per cycle
	volatile int gamePointerTilt = GAME_POINTER_SPEED;
     f22:	84 e1       	ldi	r24, 0x14	; 20
     f24:	90 e0       	ldi	r25, 0x00	; 0
     f26:	9a 83       	std	Y+2, r25	; 0x02
     f28:	89 83       	std	Y+1, r24	; 0x01
	
	while(jButton != 0)
     f2a:	80 91 00 01 	lds	r24, 0x0100	; 0x800100 <__DATA_REGION_ORIGIN__>
     f2e:	88 23       	and	r24, r24
     f30:	09 f4       	brne	.+2      	; 0xf34 <playPlayer1+0x20>
     f32:	73 c0       	rjmp	.+230    	; 0x101a <playPlayer1+0x106>
	{
		if (gamePointerTilt == 0)
		{
			copyArrayOf2();
			display_rgb[xMovement][yMovement] = GamePointer;
			gamePointerTilt = GAME_POINTER_SPEED;
     f34:	04 e1       	ldi	r16, 0x14	; 20
     f36:	10 e0       	ldi	r17, 0x00	; 0
	// Actions to do only once per cycle
	volatile int gamePointerTilt = GAME_POINTER_SPEED;
	
	while(jButton != 0)
	{
		if (gamePointerTilt == 0)
     f38:	89 81       	ldd	r24, Y+1	; 0x01
     f3a:	9a 81       	ldd	r25, Y+2	; 0x02
     f3c:	89 2b       	or	r24, r25
     f3e:	39 f5       	brne	.+78     	; 0xf8e <playPlayer1+0x7a>
		{
			copyArrayOf2();
     f40:	0e dc       	rcall	.-2020   	; 0x75e <copyArrayOf2>
			display_rgb[xMovement][yMovement] = GamePointer;
     f42:	e0 91 60 01 	lds	r30, 0x0160	; 0x800160 <yMovement>
     f46:	f0 e0       	ldi	r31, 0x00	; 0
     f48:	80 91 61 01 	lds	r24, 0x0161	; 0x800161 <xMovement>
     f4c:	90 e0       	ldi	r25, 0x00	; 0
     f4e:	9f 01       	movw	r18, r30
     f50:	22 0f       	add	r18, r18
     f52:	33 1f       	adc	r19, r19
     f54:	e2 0f       	add	r30, r18
     f56:	f3 1f       	adc	r31, r19
     f58:	9c 01       	movw	r18, r24
     f5a:	22 0f       	add	r18, r18
     f5c:	33 1f       	adc	r19, r19
     f5e:	82 0f       	add	r24, r18
     f60:	93 1f       	adc	r25, r19
     f62:	88 0f       	add	r24, r24
     f64:	99 1f       	adc	r25, r25
     f66:	88 0f       	add	r24, r24
     f68:	99 1f       	adc	r25, r25
     f6a:	88 0f       	add	r24, r24
     f6c:	99 1f       	adc	r25, r25
     f6e:	e8 0f       	add	r30, r24
     f70:	f9 1f       	adc	r31, r25
     f72:	eb 59       	subi	r30, 0x9B	; 155
     f74:	fe 4f       	sbci	r31, 0xFE	; 254
     f76:	80 91 38 01 	lds	r24, 0x0138	; 0x800138 <GamePointer>
     f7a:	90 91 39 01 	lds	r25, 0x0139	; 0x800139 <GamePointer+0x1>
     f7e:	a0 91 3a 01 	lds	r26, 0x013A	; 0x80013a <GamePointer+0x2>
     f82:	80 83       	st	Z, r24
     f84:	91 83       	std	Z+1, r25	; 0x01
     f86:	a2 83       	std	Z+2, r26	; 0x02
			gamePointerTilt = GAME_POINTER_SPEED;
     f88:	1a 83       	std	Y+2, r17	; 0x02
     f8a:	09 83       	std	Y+1, r16	; 0x01
     f8c:	34 c0       	rjmp	.+104    	; 0xff6 <playPlayer1+0xe2>
		}
		else if (gamePointerTilt >= GAME_POINTER_SPEED/2)
     f8e:	89 81       	ldd	r24, Y+1	; 0x01
     f90:	9a 81       	ldd	r25, Y+2	; 0x02
     f92:	0a 97       	sbiw	r24, 0x0a	; 10
		{
			copyArrayOf2();
     f94:	54 f1       	brlt	.+84     	; 0xfea <playPlayer1+0xd6>
     f96:	e3 db       	rcall	.-2106   	; 0x75e <copyArrayOf2>
			display_rgb[xMovement][yMovement] = GamePointer;
     f98:	e0 91 60 01 	lds	r30, 0x0160	; 0x800160 <yMovement>
     f9c:	f0 e0       	ldi	r31, 0x00	; 0
     f9e:	80 91 61 01 	lds	r24, 0x0161	; 0x800161 <xMovement>
     fa2:	90 e0       	ldi	r25, 0x00	; 0
     fa4:	9f 01       	movw	r18, r30
     fa6:	22 0f       	add	r18, r18
     fa8:	33 1f       	adc	r19, r19
     faa:	e2 0f       	add	r30, r18
     fac:	f3 1f       	adc	r31, r19
     fae:	9c 01       	movw	r18, r24
     fb0:	22 0f       	add	r18, r18
     fb2:	33 1f       	adc	r19, r19
     fb4:	82 0f       	add	r24, r18
     fb6:	93 1f       	adc	r25, r19
     fb8:	88 0f       	add	r24, r24
     fba:	99 1f       	adc	r25, r25
     fbc:	88 0f       	add	r24, r24
     fbe:	99 1f       	adc	r25, r25
     fc0:	88 0f       	add	r24, r24
     fc2:	99 1f       	adc	r25, r25
     fc4:	e8 0f       	add	r30, r24
     fc6:	f9 1f       	adc	r31, r25
     fc8:	eb 59       	subi	r30, 0x9B	; 155
     fca:	fe 4f       	sbci	r31, 0xFE	; 254
     fcc:	80 91 38 01 	lds	r24, 0x0138	; 0x800138 <GamePointer>
     fd0:	90 91 39 01 	lds	r25, 0x0139	; 0x800139 <GamePointer+0x1>
     fd4:	a0 91 3a 01 	lds	r26, 0x013A	; 0x80013a <GamePointer+0x2>
     fd8:	80 83       	st	Z, r24
     fda:	91 83       	std	Z+1, r25	; 0x01
     fdc:	a2 83       	std	Z+2, r26	; 0x02
			gamePointerTilt--;
     fde:	89 81       	ldd	r24, Y+1	; 0x01
     fe0:	9a 81       	ldd	r25, Y+2	; 0x02
     fe2:	01 97       	sbiw	r24, 0x01	; 1
     fe4:	9a 83       	std	Y+2, r25	; 0x02
     fe6:	89 83       	std	Y+1, r24	; 0x01
		}
		else
		{
			copyArrayOf2();
     fe8:	06 c0       	rjmp	.+12     	; 0xff6 <playPlayer1+0xe2>
     fea:	b9 db       	rcall	.-2190   	; 0x75e <copyArrayOf2>
			gamePointerTilt--;
     fec:	89 81       	ldd	r24, Y+1	; 0x01
     fee:	9a 81       	ldd	r25, Y+2	; 0x02
     ff0:	01 97       	sbiw	r24, 0x01	; 1
     ff2:	9a 83       	std	Y+2, r25	; 0x02
     ff4:	89 83       	std	Y+1, r24	; 0x01
		}
		
		wrt_ws2812(p2disp);
     ff6:	80 91 25 02 	lds	r24, 0x0225	; 0x800225 <p2disp>
     ffa:	90 91 26 02 	lds	r25, 0x0226	; 0x800226 <p2disp+0x1>
     ffe:	5b d8       	rcall	.-3914   	; 0xb6 <wrt_ws2812>
    1000:	2f ef       	ldi	r18, 0xFF	; 255
    1002:	89 ef       	ldi	r24, 0xF9	; 249
    1004:	90 e0       	ldi	r25, 0x00	; 0
    1006:	21 50       	subi	r18, 0x01	; 1
    1008:	80 40       	sbci	r24, 0x00	; 0
    100a:	90 40       	sbci	r25, 0x00	; 0
    100c:	e1 f7       	brne	.-8      	; 0x1006 <playPlayer1+0xf2>
    100e:	00 c0       	rjmp	.+0      	; 0x1010 <playPlayer1+0xfc>
    1010:	00 00       	nop
void playPlayer1(void)
{
	// Actions to do only once per cycle
	volatile int gamePointerTilt = GAME_POINTER_SPEED;
	
	while(jButton != 0)
    1012:	80 91 00 01 	lds	r24, 0x0100	; 0x800100 <__DATA_REGION_ORIGIN__>
    1016:	81 11       	cpse	r24, r1
    1018:	8f cf       	rjmp	.-226    	; 0xf38 <playPlayer1+0x24>
		wrt_ws2812(p2disp);
		
		_delay_ms(20);
	}
	// Actions to end the player cycle
	shootPlayer2(xMovement, yMovement);
    101a:	60 91 60 01 	lds	r22, 0x0160	; 0x800160 <yMovement>
    101e:	80 91 61 01 	lds	r24, 0x0161	; 0x800161 <xMovement>
	
	copyArrayOf2();
    1022:	48 df       	rcall	.-368    	; 0xeb4 <shootPlayer2>
	wrt_ws2812(p2disp);
    1024:	9c db       	rcall	.-2248   	; 0x75e <copyArrayOf2>
    1026:	80 91 25 02 	lds	r24, 0x0225	; 0x800225 <p2disp>
    102a:	90 91 26 02 	lds	r25, 0x0226	; 0x800226 <p2disp+0x1>
	
	delaySeconds(DELAY_BETWEEN_SHOTS);
    102e:	43 d8       	rcall	.-3962   	; 0xb6 <wrt_ws2812>
    1030:	83 e0       	ldi	r24, 0x03	; 3
    1032:	43 db       	rcall	.-2426   	; 0x6ba <delaySeconds>
	playerTurn = 2;
    1034:	82 e0       	ldi	r24, 0x02	; 2
    1036:	80 93 62 01 	sts	0x0162, r24	; 0x800162 <playerTurn>
}
    103a:	0f 90       	pop	r0
    103c:	0f 90       	pop	r0
    103e:	df 91       	pop	r29
    1040:	cf 91       	pop	r28
    1042:	1f 91       	pop	r17
    1044:	0f 91       	pop	r16
    1046:	08 95       	ret

00001048 <gameOn>:
	{
		while(playerTurn == 1)
			playPlayer1();
	
		if (checkPlayer1Win() == 1)
			playerTurn = WINPLAYER1;
    1048:	d3 e0       	ldi	r29, 0x03	; 3
		
		while (playerTurn == 2)
			playPlayer2();
		
		if (checkPlayer2Win() == 1)
			playerTurn = WINPLAYER2;
    104a:	c4 e0       	ldi	r28, 0x04	; 4
	gameOn();
}

void gameOn(void)
{
	while ((playerTurn == 1) | (playerTurn == 2))
    104c:	19 c0       	rjmp	.+50     	; 0x1080 <gameOn+0x38>
	{
		while(playerTurn == 1)
			playPlayer1();
    104e:	62 df       	rcall	.-316    	; 0xf14 <playPlayer1>

void gameOn(void)
{
	while ((playerTurn == 1) | (playerTurn == 2))
	{
		while(playerTurn == 1)
    1050:	80 91 62 01 	lds	r24, 0x0162	; 0x800162 <playerTurn>
    1054:	81 30       	cpi	r24, 0x01	; 1
			playPlayer1();
	
		if (checkPlayer1Win() == 1)
    1056:	d9 f3       	breq	.-10     	; 0x104e <gameOn+0x6>
    1058:	64 da       	rcall	.-2872   	; 0x522 <checkPlayer1Win>
    105a:	81 30       	cpi	r24, 0x01	; 1
    105c:	19 f4       	brne	.+6      	; 0x1064 <gameOn+0x1c>
			playerTurn = WINPLAYER1;
    105e:	d0 93 62 01 	sts	0x0162, r29	; 0x800162 <playerTurn>
    1062:	09 c0       	rjmp	.+18     	; 0x1076 <gameOn+0x2e>
		
		while (playerTurn == 2)
    1064:	80 91 62 01 	lds	r24, 0x0162	; 0x800162 <playerTurn>
    1068:	82 30       	cpi	r24, 0x02	; 2
			playPlayer2();
    106a:	29 f4       	brne	.+10     	; 0x1076 <gameOn+0x2e>
    106c:	86 dd       	rcall	.-1268   	; 0xb7a <playPlayer2>
			playPlayer1();
	
		if (checkPlayer1Win() == 1)
			playerTurn = WINPLAYER1;
		
		while (playerTurn == 2)
    106e:	80 91 62 01 	lds	r24, 0x0162	; 0x800162 <playerTurn>
    1072:	82 30       	cpi	r24, 0x02	; 2
			playPlayer2();
		
		if (checkPlayer2Win() == 1)
    1074:	d9 f3       	breq	.-10     	; 0x106c <gameOn+0x24>
    1076:	bb da       	rcall	.-2698   	; 0x5ee <checkPlayer2Win>
    1078:	81 30       	cpi	r24, 0x01	; 1
    107a:	11 f4       	brne	.+4      	; 0x1080 <gameOn+0x38>
			playerTurn = WINPLAYER2;
    107c:	c0 93 62 01 	sts	0x0162, r28	; 0x800162 <playerTurn>
	gameOn();
}

void gameOn(void)
{
	while ((playerTurn == 1) | (playerTurn == 2))
    1080:	80 91 62 01 	lds	r24, 0x0162	; 0x800162 <playerTurn>
    1084:	9f ef       	ldi	r25, 0xFF	; 255
    1086:	98 0f       	add	r25, r24
    1088:	92 30       	cpi	r25, 0x02	; 2
    108a:	18 f4       	brcc	.+6      	; 0x1092 <gameOn+0x4a>
	{
		while(playerTurn == 1)
    108c:	81 30       	cpi	r24, 0x01	; 1
    108e:	f9 f2       	breq	.-66     	; 0x104e <gameOn+0x6>
    1090:	e3 cf       	rjmp	.-58     	; 0x1058 <gameOn+0x10>
    1092:	ff cf       	rjmp	.-2      	; 0x1092 <gameOn+0x4a>

00001094 <main>:
void scanCargueros2(int8_t, int8_t);


int main (void)
{		
	init_ws2812();		// Initialize RGB Display driver
    1094:	06 d8       	rcall	.-4084   	; 0xa2 <init_ws2812>
	init_RTI();			// Initialize Periodic Real Time Interrupt(Timer)
    1096:	3b d9       	rcall	.-3466   	; 0x30e <init_RTI>
	UART_Init();		// Initialize serial port driver (UART)
    1098:	ef d9       	rcall	.-3106   	; 0x478 <UART_Init>
	adc_init();			// Initialize Analog to digital converter (Joystick)
    109a:	aa d8       	rcall	.-3756   	; 0x1f0 <adc_init>
    109c:	59 d8       	rcall	.-3918   	; 0x150 <wrt_Digit_Init>
	wrt_Digit_Init();	// Initialize the Seven Segments Display
    109e:	81 e0       	ldi	r24, 0x01	; 1
    10a0:	80 93 62 01 	sts	0x0162, r24	; 0x800162 <playerTurn>
	playerTurn = 1;		// Sets the value of the first player
    10a4:	85 e6       	ldi	r24, 0x65	; 101
    10a6:	91 e0       	ldi	r25, 0x01	; 1
		
	p2disp=&display_rgb[0][0];
    10a8:	90 93 26 02 	sts	0x0226, r25	; 0x800226 <p2disp+0x1>
    10ac:	80 93 25 02 	sts	0x0225, r24	; 0x800225 <p2disp>
    10b0:	e7 e2       	ldi	r30, 0x27	; 39
    10b2:	f2 e0       	ldi	r31, 0x02	; 2
    10b4:	47 ee       	ldi	r20, 0xE7	; 231
    10b6:	52 e0       	ldi	r21, 0x02	; 2
    10b8:	15 c0       	rjmp	.+42     	; 0x10e4 <main+0x50>
    10ba:	80 91 5d 01 	lds	r24, 0x015D	; 0x80015d <Apagado>
	
	for (int i=0; i<=7; i++)				// Sets the initial 'Apagado' value for matrizJugador1 RGBled array.
		for (int j=0; j<=7; j++)
			matrizJugador1[i][j] = Apagado;
    10be:	90 91 5e 01 	lds	r25, 0x015E	; 0x80015e <Apagado+0x1>
    10c2:	a0 91 5f 01 	lds	r26, 0x015F	; 0x80015f <Apagado+0x2>
    10c6:	81 93       	st	Z+, r24
    10c8:	91 93       	st	Z+, r25
    10ca:	a1 93       	st	Z+, r26
    10cc:	e2 17       	cp	r30, r18
    10ce:	f3 07       	cpc	r31, r19
	playerTurn = 1;		// Sets the value of the first player
		
	p2disp=&display_rgb[0][0];
	
	for (int i=0; i<=7; i++)				// Sets the initial 'Apagado' value for matrizJugador1 RGBled array.
		for (int j=0; j<=7; j++)
    10d0:	a1 f7       	brne	.-24     	; 0x10ba <main+0x26>
    10d2:	f9 01       	movw	r30, r18
    10d4:	42 17       	cp	r20, r18
    10d6:	53 07       	cpc	r21, r19
	wrt_Digit_Init();	// Initialize the Seven Segments Display
	playerTurn = 1;		// Sets the value of the first player
		
	p2disp=&display_rgb[0][0];
	
	for (int i=0; i<=7; i++)				// Sets the initial 'Apagado' value for matrizJugador1 RGBled array.
    10d8:	29 f4       	brne	.+10     	; 0x10e4 <main+0x50>
    10da:	e7 ee       	ldi	r30, 0xE7	; 231
    10dc:	f2 e0       	ldi	r31, 0x02	; 2
    10de:	47 ea       	ldi	r20, 0xA7	; 167
    10e0:	53 e0       	ldi	r21, 0x03	; 3
    10e2:	14 c0       	rjmp	.+40     	; 0x110c <main+0x78>
    10e4:	9f 01       	movw	r18, r30
    10e6:	28 5e       	subi	r18, 0xE8	; 232
    10e8:	3f 4f       	sbci	r19, 0xFF	; 255
    10ea:	e7 cf       	rjmp	.-50     	; 0x10ba <main+0x26>
    10ec:	80 91 5d 01 	lds	r24, 0x015D	; 0x80015d <Apagado>
		for (int j=0; j<=7; j++)
			matrizJugador1[i][j] = Apagado;

	for (int i=0; i<=7; i++)				// Sets the initial 'Apagado' value for matrizJugador2 RGBled array.
		for (int j=0; j<=7; j++)
			matrizJugador2[i][j] = Apagado;
    10f0:	90 91 5e 01 	lds	r25, 0x015E	; 0x80015e <Apagado+0x1>
    10f4:	a0 91 5f 01 	lds	r26, 0x015F	; 0x80015f <Apagado+0x2>
    10f8:	81 93       	st	Z+, r24
    10fa:	91 93       	st	Z+, r25
    10fc:	a1 93       	st	Z+, r26
    10fe:	e2 17       	cp	r30, r18
    1100:	f3 07       	cpc	r31, r19
	for (int i=0; i<=7; i++)				// Sets the initial 'Apagado' value for matrizJugador1 RGBled array.
		for (int j=0; j<=7; j++)
			matrizJugador1[i][j] = Apagado;

	for (int i=0; i<=7; i++)				// Sets the initial 'Apagado' value for matrizJugador2 RGBled array.
		for (int j=0; j<=7; j++)
    1102:	a1 f7       	brne	.-24     	; 0x10ec <main+0x58>
    1104:	f9 01       	movw	r30, r18
    1106:	42 17       	cp	r20, r18
    1108:	53 07       	cpc	r21, r19
	
	for (int i=0; i<=7; i++)				// Sets the initial 'Apagado' value for matrizJugador1 RGBled array.
		for (int j=0; j<=7; j++)
			matrizJugador1[i][j] = Apagado;

	for (int i=0; i<=7; i++)				// Sets the initial 'Apagado' value for matrizJugador2 RGBled array.
    110a:	21 f0       	breq	.+8      	; 0x1114 <main+0x80>
    110c:	9f 01       	movw	r18, r30
    110e:	28 5e       	subi	r18, 0xE8	; 232
    1110:	3f 4f       	sbci	r19, 0xFF	; 255
    1112:	ec cf       	rjmp	.-40     	; 0x10ec <main+0x58>
    1114:	78 94       	sei
		for (int j=0; j<=7; j++)
			matrizJugador2[i][j] = Apagado;
			
	sei();					// Enable global Interrupts
    1116:	98 df       	rcall	.-208    	; 0x1048 <gameOn>

00001118 <_exit>:
	
	gameOn();
    1118:	f8 94       	cli

0000111a <__stop_program>:
    111a:	ff cf       	rjmp	.-2      	; 0x111a <__stop_program>
